

Microchip MPLAB XC8 Assembler V2.36 build 20220127204148 
                                                                                               Wed Mar 09 12:24:44 2022

Microchip MPLAB XC8 C Compiler v2.36 (Free license) build 20220127204148 Og1 
     1                           	processor	18F4550
     2                           	fnconf	rparam,??,?,0
     3                           	pagewidth 120
     4                           	opt	flic
     5                           	psect	smallconst,global,reloc=2,class=SMALLCONST,delta=1,noexec
     6                           	psect	cinit,global,reloc=2,class=CODE,delta=1
     7                           	psect	bssBANK0,global,class=BANK0,space=1,delta=1,lowdata,noexec
     8                           	psect	cstackBANK0,global,class=BANK0,space=1,delta=1,lowdata,noexec
     9                           	psect	cstackCOMRAM,global,class=COMRAM,space=1,delta=1,lowdata,noexec
    10                           	psect	text0,global,reloc=2,class=CODE,delta=1
    11                           	psect	text1,global,reloc=2,class=CODE,delta=1
    12                           	psect	text2,global,reloc=2,class=CODE,delta=1
    13                           	psect	text3,global,reloc=2,class=CODE,delta=1
    14                           	psect	text4,global,reloc=2,class=CODE,delta=1,group=3
    15                           	psect	text5,global,reloc=2,class=CODE,delta=1,group=1
    16                           	psect	text6,global,reloc=2,class=CODE,delta=1,group=1
    17                           	psect	text7,global,reloc=2,class=CODE,delta=1,group=1
    18                           	psect	text8,global,reloc=2,class=CODE,delta=1,group=1
    19                           	psect	text9,global,reloc=2,class=CODE,delta=1,group=3
    20                           	psect	text10,global,reloc=2,class=CODE,delta=1,group=3
    21                           	psect	text11,global,reloc=2,class=CODE,delta=1,group=3
    22                           	psect	text12,global,reloc=2,class=CODE,delta=1,group=3
    23                           	psect	text13,global,reloc=2,class=CODE,delta=1,group=3
    24                           	psect	text14,global,reloc=2,class=CODE,delta=1,group=2
    25                           	psect	text15,global,reloc=2,class=CODE,delta=1,group=2
    26                           	psect	text16,global,reloc=2,class=CODE,delta=1,group=3
    27                           	psect	text17,global,reloc=2,class=CODE,delta=1,group=3
    28                           	psect	text18,global,reloc=2,class=CODE,delta=1,group=3
    29                           	psect	text19,global,reloc=2,class=CODE,delta=1,group=2
    30                           	psect	text20,global,reloc=2,class=CODE,delta=1
    31                           	psect	text21,global,reloc=2,class=CODE,delta=1
    32                           	psect	text22,global,reloc=2,class=CODE,delta=1
    33                           	psect	text23,global,reloc=2,class=CODE,delta=1
    34                           	psect	text24,global,reloc=2,class=CODE,delta=1
    35                           	psect	text25,global,reloc=2,class=CODE,delta=1
    36                           	psect	text26,global,reloc=2,class=CODE,delta=1
    37                           	psect	text27,global,reloc=2,class=CODE,delta=1
    38                           	psect	text28,global,reloc=2,class=CODE,delta=1
    39                           	psect	text29,global,reloc=2,class=CODE,delta=1
    40                           	psect	text30,global,reloc=2,class=CODE,delta=1,group=2
    41                           	psect	text31,global,reloc=2,class=CODE,delta=1
    42                           	psect	text32,global,reloc=2,class=CODE,delta=1
    43                           	psect	text33,global,reloc=2,class=CODE,delta=1,group=2
    44                           	psect	text34,global,reloc=2,class=CODE,delta=1,group=2
    45                           	psect	text35,global,reloc=2,class=CODE,delta=1,group=2
    46                           	psect	text36,global,reloc=2,class=CODE,delta=1,group=2
    47                           	psect	text37,global,reloc=2,class=CODE,delta=1
    48                           	psect	text38,global,reloc=2,class=CODE,delta=1
    49                           	psect	intsave_regs,global,class=BIGRAM,space=1,delta=1,noexec
    50                           	psect	rparam,global,class=COMRAM,space=1,delta=1,noexec
    51                           	psect	idloc,global,abs,ovrld,class=IDLOC,space=5,delta=1,noexec
    52                           	psect	config,global,abs,ovrld,class=CONFIG,space=4,delta=1,noexec
    53  0000                     
    54                           ; Version 2.40
    55                           ; Generated 17/11/2021 GMT
    56                           ; 
    57                           ; Copyright © 2021, Microchip Technology Inc. and its subsidiaries ("Microchip")
    58                           ; All rights reserved.
    59                           ; 
    60                           ; This software is developed by Microchip Technology Inc. and its subsidiaries ("Microch
      +                          ip").
    61                           ; 
    62                           ; Redistribution and use in source and binary forms, with or without modification, are
    63                           ; permitted provided that the following conditions are met:
    64                           ; 
    65                           ;     1. Redistributions of source code must retain the above copyright notice, this lis
      +                          t of
    66                           ;        conditions and the following disclaimer.
    67                           ; 
    68                           ;     2. Redistributions in binary form must reproduce the above copyright notice, this 
      +                          list
    69                           ;        of conditions and the following disclaimer in the documentation and/or other
    70                           ;        materials provided with the distribution. Publication is not required when
    71                           ;        this file is used in an embedded application.
    72                           ; 
    73                           ;     3. Microchip's name may not be used to endorse or promote products derived from th
      +                          is
    74                           ;        software without specific prior written permission.
    75                           ; 
    76                           ; THIS SOFTWARE IS PROVIDED BY MICROCHIP "AS IS" AND ANY EXPRESS OR IMPLIED WARRANTIES,
    77                           ; INCLUDING, BUT NOT LIMITED TO, THE IMPLIED WARRANTIES OF MERCHANTABILITY AND FITNESS F
      +                          OR
    78                           ; PURPOSE ARE DISCLAIMED.  IN NO EVENT SHALL MICROCHIP BE LIABLE FOR ANY DIRECT, INDIREC
      +                          T,
    79                           ; INCIDENTAL, SPECIAL, EXEMPLARY, OR CONSEQUENTIAL DAMAGES (INCLUDING BUT NOT LIMITED TO
    80                           ; PROCUREMENT OF SUBSTITUTE GOODS OR SERVICES; LOSS OF USE, DATA OR PROFITS; OR BUSINESS
    81                           ; INTERRUPTION) HOWSOEVER CAUSED AND ON ANY THEORY OF LIABILITY, WHETHER IN CONTRACT, ST
      +                          RICT
    82                           ; LIABILITY, OR TORT (INCLUDING NEGLIGENCE OR OTHERWISE) ARISING IN ANY WAY OUT OF THE U
      +                          SE OF
    83                           ; THIS SOFTWARE, EVEN IF ADVISED OF THE POSSIBILITY OF SUCH DAMAGE.
    84                           ; 
    85                           ; 
    86                           ; Code-generator required, PIC18F4550 Definitions
    87                           ; 
    88                           ; SFR Addresses
    89  0000                     _RCREG	set	4014
    90  0000                     _TXREG	set	4013
    91  0000                     _TRISA	set	3986
    92  0000                     _ADCON1bits	set	4033
    93  0000                     _RCSTAbits	set	4011
    94  0000                     _TMR1ON	set	32360
    95  0000                     _LATD3	set	31843
    96  0000                     _LATD2	set	31842
    97  0000                     _LATD1	set	31841
    98  0000                     _LATD4	set	31844
    99  0000                     _RB3	set	31755
   100  0000                     _RB2	set	31754
   101  0000                     _RB7	set	31759
   102  0000                     _RB6	set	31758
   103  0000                     _RB5	set	31757
   104  0000                     _CREN	set	32092
   105  0000                     _RCIF	set	31989
   106  0000                     _TRISC7	set	31911
   107  0000                     _PORTAbits	set	3968
   108  0000                     _RB4	set	31756
   109  0000                     _TRISC6	set	31910
   110  0000                     _TRISD	set	3989
   111  0000                     _RCSTA	set	4011
   112  0000                     _TXSTA	set	4012
   113  0000                     _SPBRG	set	4015
   114  0000                     _TXIF	set	31988
   115  0000                     _ADCON1	set	4033
   116  0000                     _OSCCON	set	4051
   117  0000                     _PORTDbits	set	3971
   118  0000                     _TRISB	set	3987
   119  0000                     _LATD0	set	31840
   120  0000                     _T1CONbits	set	4045
   121  0000                     _TRISA2	set	31890
   122  0000                     _LATAbits	set	3977
   123  0000                     _TMR1	set	4046
   124                           
   125                           	psect	smallconst
   126  000800                     __psmallconst:
   127                           	callstack 0
   128  000800  00                 	db	0
   129  000801                     STR_5:
   130  000801  20                 	db	32
   131  000802  49                 	db	73	;'I'
   132  000803  4E                 	db	78	;'N'
   133  000804  46                 	db	70	;'F'
   134  000805  4F                 	db	79	;'O'
   135  000806  20                 	db	32
   136  000807  55                 	db	85	;'U'
   137  000808  4C                 	db	76	;'L'
   138  000809  54                 	db	84	;'T'
   139  00080A  52                 	db	82	;'R'
   140  00080B  41                 	db	65	;'A'
   141  00080C  53                 	db	83	;'S'
   142  00080D  4F                 	db	79	;'O'
   143  00080E  4E                 	db	78	;'N'
   144  00080F  49                 	db	73	;'I'
   145  000810  43                 	db	67	;'C'
   146  000811  4F                 	db	79	;'O'
   147  000812  20                 	db	32
   148  000813  00                 	db	0
   149  000814                     STR_6:
   150  000814  44                 	db	68	;'D'
   151  000815  69                 	db	105	;'i'
   152  000816  73                 	db	115	;'s'
   153  000817  74                 	db	116	;'t'
   154  000818  61                 	db	97	;'a'
   155  000819  6E                 	db	110	;'n'
   156  00081A  63                 	db	99	;'c'
   157  00081B  69                 	db	105	;'i'
   158  00081C  61                 	db	97	;'a'
   159  00081D  3A                 	db	58	;':'
   160  00081E  20                 	db	32
   161  00081F  25                 	db	37
   162  000820  30                 	db	48	;'0'
   163  000821  33                 	db	51	;'3'
   164  000822  64                 	db	100	;'d'
   165  000823  63                 	db	99	;'c'
   166  000824  6D                 	db	109	;'m'
   167  000825  00                 	db	0
   168  000826                     STR_1:
   169  000826  41                 	db	65	;'A'
   170  000827  00                 	db	0
   171  000828                     STR_2:
   172  000828  44                 	db	68	;'D'
   173  000829  00                 	db	0
   174  00082A                     STR_3:
   175  00082A  53                 	db	83	;'S'
   176  00082B  00                 	db	0
   177  00082C                     STR_4:
   178  00082C  55                 	db	85	;'U'
   179  00082D  00                 	db	0
   180  00082E  00                 	db	0	; dummy byte at the end
   181  0000                     
   182                           ; #config settings
   183                           
   184                           	psect	cinit
   185  0027D0                     __pcinit:
   186                           	callstack 0
   187  0027D0                     start_initialization:
   188                           	callstack 0
   189  0027D0                     __initialization:
   190                           	callstack 0
   191                           
   192                           ; Clear objects allocated to BANK0 (72 bytes)
   193  0027D0  EE00  F060         	lfsr	0,__pbssBANK0
   194  0027D4  0E48               	movlw	72
   195  0027D6                     clear_0:
   196  0027D6  6AEE               	clrf	postinc0,c
   197  0027D8  06E8               	decf	wreg,f,c
   198  0027DA  E1FD               	bnz	clear_0
   199  0027DC                     end_of_initialization:
   200                           	callstack 0
   201  0027DC                     __end_of__initialization:
   202                           	callstack 0
   203  0027DC  0E00               	movlw	low (__Lmediumconst shr (0+16))
   204  0027DE  6EF8               	movwf	tblptru,c
   205  0027E0  0100               	movlb	0
   206  0027E2  EF9F  F013         	goto	_main	;jump to C main() function
   207                           
   208                           	psect	bssBANK0
   209  000060                     __pbssBANK0:
   210                           	callstack 0
   211  000060                     _nout:
   212                           	callstack 0
   213  000060                     	ds	2
   214  000062                     _width:
   215                           	callstack 0
   216  000062                     	ds	2
   217  000064                     _prec:
   218                           	callstack 0
   219  000064                     	ds	2
   220  000066                     _flags:
   221                           	callstack 0
   222  000066                     	ds	2
   223  000068                     _dbuf:
   224                           	callstack 0
   225  000068                     	ds	32
   226  000088                     _LCD_Buffer:
   227                           	callstack 0
   228  000088                     	ds	32
   229                           
   230                           	psect	cstackBANK0
   231  0000A8                     __pcstackBANK0:
   232                           	callstack 0
   233  0000A8                     ?_sprintf:
   234                           	callstack 0
   235  0000A8                     sprintf@s:
   236                           	callstack 0
   237                           
   238                           ; 2 bytes @ 0x0
   239  0000A8                     	ds	2
   240  0000AA                     sprintf@fmt:
   241                           	callstack 0
   242                           
   243                           ; 2 bytes @ 0x2
   244  0000AA                     	ds	4
   245  0000AE                     sprintf@ap:
   246                           	callstack 0
   247                           
   248                           ; 2 bytes @ 0x6
   249  0000AE                     	ds	2
   250  0000B0                     sprintf@f:
   251                           	callstack 0
   252                           
   253                           ; 11 bytes @ 0x8
   254  0000B0                     	ds	11
   255  0000BB                     ??_controlSemaforo:
   256                           
   257                           ; 1 bytes @ 0x13
   258  0000BB                     	ds	1
   259  0000BC                     controlSemaforo@Distancia:
   260                           	callstack 0
   261                           
   262                           ; 2 bytes @ 0x14
   263  0000BC                     	ds	2
   264  0000BE                     
   265                           ; 2 bytes @ 0x16
   266  0000BE                     	ds	2
   267  0000C0                     
   268                           ; 3 bytes @ 0x18
   269  0000C0                     	ds	3
   270                           
   271                           	psect	cstackCOMRAM
   272  000001                     __pcstackCOMRAM:
   273                           	callstack 0
   274  000001                     ??_delaymsled_red_green:
   275  000001                     ??_delaymsled_yellow:
   276  000001                     ?_strlen:
   277                           	callstack 0
   278  000001                     ?_isdigit:
   279                           	callstack 0
   280  000001                     ?_isspace:
   281                           	callstack 0
   282  000001                     ?___wmul:
   283                           	callstack 0
   284  000001                     ?___lwdiv:
   285                           	callstack 0
   286  000001                     ?___fltol:
   287                           	callstack 0
   288  000001                     ?___xxtofl:
   289                           	callstack 0
   290  000001                     ?___aodiv:
   291                           	callstack 0
   292  000001                     ?___aomod:
   293                           	callstack 0
   294  000001                     USART_TxChar@out:
   295                           	callstack 0
   296  000001                     Lcd_Port@a:
   297                           	callstack 0
   298  000001                     ___wmul@multiplier:
   299                           	callstack 0
   300  000001                     ___lwdiv@dividend:
   301                           	callstack 0
   302  000001                     isdigit@c:
   303                           	callstack 0
   304  000001                     isspace@c:
   305                           	callstack 0
   306  000001                     fputc@c:
   307                           	callstack 0
   308  000001                     strlen@s:
   309                           	callstack 0
   310  000001                     ___fltol@f1:
   311                           	callstack 0
   312  000001                     ___xxtofl@val:
   313                           	callstack 0
   314  000001                     ___aodiv@dividend:
   315                           	callstack 0
   316  000001                     ___aomod@dividend:
   317                           	callstack 0
   318                           
   319                           ; 8 bytes @ 0x0
   320  000001                     	ds	1
   321  000002                     ??_Lcd_Cmd:
   322  000002                     lcd_write_char@temp:
   323                           	callstack 0
   324  000002                     USART_SendString@out:
   325                           	callstack 0
   326                           
   327                           ; 2 bytes @ 0x1
   328  000002                     	ds	1
   329  000003                     ??_isdigit:
   330  000003                     ??_isspace:
   331  000003                     Lcd_Cmd@a:
   332                           	callstack 0
   333  000003                     lcd_write_char@y:
   334                           	callstack 0
   335  000003                     ___wmul@multiplicand:
   336                           	callstack 0
   337  000003                     ___lwdiv@divisor:
   338                           	callstack 0
   339  000003                     fputc@fp:
   340                           	callstack 0
   341  000003                     strlen@a:
   342                           	callstack 0
   343                           
   344                           ; 2 bytes @ 0x2
   345  000003                     	ds	1
   346  000004                     ??_lcd_init:
   347  000004                     lcd_gotoxy@b:
   348                           	callstack 0
   349  000004                     lcd_write_char@a:
   350                           	callstack 0
   351                           
   352                           ; 1 bytes @ 0x3
   353  000004                     	ds	1
   354  000005                     ??_fputc:
   355  000005                     ??___fltol:
   356  000005                     ??___xxtofl:
   357  000005                     lcd_gotoxy@a:
   358                           	callstack 0
   359  000005                     lcd_putc@a:
   360                           	callstack 0
   361  000005                     ___wmul@product:
   362                           	callstack 0
   363  000005                     ___lwdiv@quotient:
   364                           	callstack 0
   365                           
   366                           ; 2 bytes @ 0x4
   367  000005                     	ds	1
   368  000006                     lcd_gotoxy@z:
   369                           	callstack 0
   370                           
   371                           ; 1 bytes @ 0x5
   372  000006                     	ds	1
   373  000007                     ??_lcd_putc:
   374  000007                     lcd_gotoxy@y:
   375                           	callstack 0
   376  000007                     ___lwdiv@counter:
   377                           	callstack 0
   378  000007                     _isspace$1072:
   379                           	callstack 0
   380                           
   381                           ; 1 bytes @ 0x6
   382  000007                     	ds	1
   383  000008                     ?_Obtener_Distancia:
   384                           	callstack 0
   385  000008                     ?_atoi:
   386                           	callstack 0
   387  000008                     lcd_gotoxy@temp:
   388                           	callstack 0
   389  000008                     atoi@s:
   390                           	callstack 0
   391                           
   392                           ; 2 bytes @ 0x7
   393  000008                     	ds	1
   394  000009                     ___fltol@sign1:
   395                           	callstack 0
   396  000009                     ___xxtofl@sign:
   397                           	callstack 0
   398  000009                     lcd_putc@i:
   399                           	callstack 0
   400  000009                     ___aodiv@divisor:
   401                           	callstack 0
   402  000009                     ___aomod@divisor:
   403                           	callstack 0
   404                           
   405                           ; 8 bytes @ 0x8
   406  000009                     	ds	1
   407  00000A                     ??_Obtener_Distancia:
   408  00000A                     ??_atoi:
   409  00000A                     ___fltol@exp1:
   410                           	callstack 0
   411  00000A                     ___xxtofl@exp:
   412                           	callstack 0
   413  00000A                     fputs@s:
   414                           	callstack 0
   415                           
   416                           ; 2 bytes @ 0x9
   417  00000A                     	ds	1
   418  00000B                     ___xxtofl@arg:
   419                           	callstack 0
   420                           
   421                           ; 4 bytes @ 0xA
   422  00000B                     	ds	1
   423  00000C                     Obtener_Distancia@Timer_1:
   424                           	callstack 0
   425  00000C                     fputs@fp:
   426                           	callstack 0
   427                           
   428                           ; 2 bytes @ 0xB
   429  00000C                     	ds	2
   430  00000E                     fputs@c:
   431                           	callstack 0
   432  00000E                     Obtener_Distancia@Distancia:
   433                           	callstack 0
   434  00000E                     atoi@neg:
   435                           	callstack 0
   436                           
   437                           ; 2 bytes @ 0xD
   438  00000E                     	ds	1
   439  00000F                     ?___fldiv:
   440                           	callstack 0
   441  00000F                     fputs@i:
   442                           	callstack 0
   443  00000F                     ___fldiv@b:
   444                           	callstack 0
   445                           
   446                           ; 4 bytes @ 0xE
   447  00000F                     	ds	1
   448  000010                     Obtener_Distancia@Duracion:
   449                           	callstack 0
   450  000010                     atoi@n:
   451                           	callstack 0
   452                           
   453                           ; 2 bytes @ 0xF
   454  000010                     	ds	1
   455  000011                     ?_pad:
   456                           	callstack 0
   457  000011                     ___aodiv@counter:
   458                           	callstack 0
   459  000011                     ___aomod@counter:
   460                           	callstack 0
   461  000011                     pad@fp:
   462                           	callstack 0
   463                           
   464                           ; 2 bytes @ 0x10
   465  000011                     	ds	1
   466  000012                     ___aodiv@sign:
   467                           	callstack 0
   468  000012                     ___aomod@sign:
   469                           	callstack 0
   470  000012                     funcion_SensorPir@bandera:
   471                           	callstack 0
   472                           
   473                           ; 2 bytes @ 0x11
   474  000012                     	ds	1
   475  000013                     ?_abs:
   476                           	callstack 0
   477  000013                     pad@buf:
   478                           	callstack 0
   479  000013                     abs@a:
   480                           	callstack 0
   481  000013                     ___fldiv@a:
   482                           	callstack 0
   483  000013                     ___aodiv@quotient:
   484                           	callstack 0
   485                           
   486                           ; 8 bytes @ 0x12
   487  000013                     	ds	1
   488  000014                     funcion_SensorPir@Distancia:
   489                           	callstack 0
   490                           
   491                           ; 2 bytes @ 0x13
   492  000014                     	ds	1
   493  000015                     ??_abs:
   494  000015                     pad@p:
   495                           	callstack 0
   496                           
   497                           ; 2 bytes @ 0x14
   498  000015                     	ds	2
   499  000017                     ??___fldiv:
   500  000017                     ??_pad:
   501                           
   502                           ; 1 bytes @ 0x16
   503  000017                     	ds	1
   504  000018                     pad@i:
   505                           	callstack 0
   506                           
   507                           ; 2 bytes @ 0x17
   508  000018                     	ds	2
   509  00001A                     pad@w:
   510                           	callstack 0
   511                           
   512                           ; 2 bytes @ 0x19
   513  00001A                     	ds	1
   514  00001B                     ___fldiv@rem:
   515                           	callstack 0
   516                           
   517                           ; 4 bytes @ 0x1A
   518  00001B                     	ds	1
   519  00001C                     ?_dtoa:
   520                           	callstack 0
   521  00001C                     dtoa@fp:
   522                           	callstack 0
   523                           
   524                           ; 2 bytes @ 0x1B
   525  00001C                     	ds	2
   526  00001E                     dtoa@d:
   527                           	callstack 0
   528                           
   529                           ; 8 bytes @ 0x1D
   530  00001E                     	ds	1
   531  00001F                     ___fldiv@sign:
   532                           	callstack 0
   533                           
   534                           ; 1 bytes @ 0x1E
   535  00001F                     	ds	1
   536  000020                     ___fldiv@new_exp:
   537                           	callstack 0
   538                           
   539                           ; 2 bytes @ 0x1F
   540  000020                     	ds	2
   541  000022                     ___fldiv@grs:
   542                           	callstack 0
   543                           
   544                           ; 4 bytes @ 0x21
   545  000022                     	ds	4
   546  000026                     ??_dtoa:
   547  000026                     ___fldiv@bexp:
   548                           	callstack 0
   549                           
   550                           ; 1 bytes @ 0x25
   551  000026                     	ds	1
   552  000027                     ___fldiv@aexp:
   553                           	callstack 0
   554                           
   555                           ; 1 bytes @ 0x26
   556  000027                     	ds	1
   557  000028                     ?___fladd:
   558                           	callstack 0
   559  000028                     ___fladd@b:
   560                           	callstack 0
   561                           
   562                           ; 4 bytes @ 0x27
   563  000028                     	ds	4
   564  00002C                     ___fladd@a:
   565                           	callstack 0
   566                           
   567                           ; 4 bytes @ 0x2B
   568  00002C                     	ds	2
   569  00002E                     _dtoa$1023:
   570                           	callstack 0
   571                           
   572                           ; 2 bytes @ 0x2D
   573  00002E                     	ds	2
   574  000030                     ??___fladd:
   575  000030                     dtoa@p:
   576                           	callstack 0
   577                           
   578                           ; 2 bytes @ 0x2F
   579  000030                     	ds	2
   580  000032                     dtoa@w:
   581                           	callstack 0
   582                           
   583                           ; 2 bytes @ 0x31
   584  000032                     	ds	2
   585  000034                     ___fladd@signs:
   586                           	callstack 0
   587  000034                     dtoa@s:
   588                           	callstack 0
   589                           
   590                           ; 2 bytes @ 0x33
   591  000034                     	ds	1
   592  000035                     ___fladd@aexp:
   593                           	callstack 0
   594                           
   595                           ; 1 bytes @ 0x34
   596  000035                     	ds	1
   597  000036                     ___fladd@bexp:
   598                           	callstack 0
   599  000036                     dtoa@n:
   600                           	callstack 0
   601                           
   602                           ; 8 bytes @ 0x35
   603  000036                     	ds	1
   604  000037                     ___fladd@grs:
   605                           	callstack 0
   606                           
   607                           ; 1 bytes @ 0x36
   608  000037                     	ds	1
   609  000038                     USART_Init@baud_rate:
   610                           	callstack 0
   611                           
   612                           ; 4 bytes @ 0x37
   613  000038                     	ds	4
   614  00003C                     USART_Init@temp:
   615                           	callstack 0
   616                           
   617                           ; 4 bytes @ 0x3B
   618  00003C                     	ds	2
   619  00003E                     dtoa@i:
   620                           	callstack 0
   621                           
   622                           ; 2 bytes @ 0x3D
   623  00003E                     	ds	2
   624  000040                     ?_vfpfcnvrt:
   625                           	callstack 0
   626  000040                     vfpfcnvrt@fp:
   627                           	callstack 0
   628                           
   629                           ; 2 bytes @ 0x3F
   630  000040                     	ds	2
   631  000042                     vfpfcnvrt@fmt:
   632                           	callstack 0
   633                           
   634                           ; 2 bytes @ 0x41
   635  000042                     	ds	2
   636  000044                     vfpfcnvrt@ap:
   637                           	callstack 0
   638                           
   639                           ; 2 bytes @ 0x43
   640  000044                     	ds	2
   641  000046                     ??_vfpfcnvrt:
   642                           
   643                           ; 1 bytes @ 0x45
   644  000046                     	ds	4
   645  00004A                     vfpfcnvrt@ll:
   646                           	callstack 0
   647                           
   648                           ; 8 bytes @ 0x49
   649  00004A                     	ds	8
   650  000052                     vfpfcnvrt@done:
   651                           	callstack 0
   652                           
   653                           ; 2 bytes @ 0x51
   654  000052                     	ds	2
   655  000054                     ?_vfprintf:
   656                           	callstack 0
   657  000054                     vfprintf@fp:
   658                           	callstack 0
   659                           
   660                           ; 2 bytes @ 0x53
   661  000054                     	ds	2
   662  000056                     vfprintf@fmt:
   663                           	callstack 0
   664                           
   665                           ; 2 bytes @ 0x55
   666  000056                     	ds	2
   667  000058                     vfprintf@ap:
   668                           	callstack 0
   669                           
   670                           ; 2 bytes @ 0x57
   671  000058                     	ds	2
   672  00005A                     vfprintf@cfmt:
   673                           	callstack 0
   674                           
   675                           ; 2 bytes @ 0x59
   676  00005A                     	ds	2
   677  00005C                     llamar_ultrasonico@Distancia:
   678                           	callstack 0
   679                           
   680                           ; 2 bytes @ 0x5B
   681  00005C                     	ds	2
   682  00005E                     ??_llamar_ultrasonico:
   683                           
   684                           ; 1 bytes @ 0x5D
   685  00005E                     	ds	2
   686  000060                     
   687                           ; 1 bytes @ 0x5F
   688 ;;
   689 ;;Main: autosize = 0, tempsize = 0, incstack = 0, save=0
   690 ;;
   691 ;; *************** function _main *****************
   692 ;; Defined at:
   693 ;;		line 68 in file "mainPic1.c"
   694 ;; Parameters:    Size  Location     Type
   695 ;;  argc            2   22[BANK0 ] int 
   696 ;;  argv            3   24[BANK0 ] PTR PTR unsigned char 
   697 ;; Auto vars:     Size  Location     Type
   698 ;;		None
   699 ;; Return value:  Size  Location     Type
   700 ;;                  2   22[BANK0 ] int 
   701 ;; Registers used:
   702 ;;		wreg, fsr1l, fsr1h, fsr2l, fsr2h, status,2, status,0, tblptrl, tblptrh, tblptru, prodl, prodh, cstack
   703 ;; Tracked objects:
   704 ;;		On entry : 0/0
   705 ;;		On exit  : 0/0
   706 ;;		Unchanged: 0/0
   707 ;; Data sizes:     COMRAM   BANK0   BANK1   BANK2   BANK3   BANK4   BANK5   BANK6   BANK7
   708 ;;      Params:         0       5       0       0       0       0       0       0       0
   709 ;;      Locals:         0       0       0       0       0       0       0       0       0
   710 ;;      Temps:          0       0       0       0       0       0       0       0       0
   711 ;;      Totals:         0       5       0       0       0       0       0       0       0
   712 ;;Total ram usage:        5 bytes
   713 ;; Hardware stack levels required when called: 10
   714 ;; This function calls:
   715 ;;		_Configuracion_Registros
   716 ;;		_Timer1_Init
   717 ;;		_USART_Init
   718 ;;		_controlSemaforo
   719 ;;		_lcd_init
   720 ;; This function is called by:
   721 ;;		Startup code after reset
   722 ;; This function uses a non-reentrant model
   723 ;;
   724                           
   725                           	psect	text0
   726  00273E                     __ptext0:
   727                           	callstack 0
   728  00273E                     _main:
   729                           	callstack 21
   730  00273E                     
   731                           ;mainPic1.c: 70:     OSCCON=0b01110010;
   732  00273E  0E72               	movlw	114
   733  002740  6ED3               	movwf	211,c	;volatile
   734                           
   735                           ;mainPic1.c: 71:     ADCON1=0x0F;
   736  002742  0E0F               	movlw	15
   737  002744  6EC1               	movwf	193,c	;volatile
   738  002746                     
   739                           ;mainPic1.c: 72:     USART_Init(9600);
   740  002746  0E80               	movlw	128
   741  002748  6E38               	movwf	USART_Init@baud_rate^0,c
   742  00274A  0E25               	movlw	37
   743  00274C  6E39               	movwf	(USART_Init@baud_rate+1)^0,c
   744  00274E  0E00               	movlw	0
   745  002750  6E3A               	movwf	(USART_Init@baud_rate+2)^0,c
   746  002752  0E00               	movlw	0
   747  002754  6E3B               	movwf	(USART_Init@baud_rate+3)^0,c
   748  002756  EC60  F010         	call	_USART_Init	;wreg free
   749  00275A                     
   750                           ;mainPic1.c: 73:     Configuracion_Registros();
   751  00275A  EC08  F014         	call	_Configuracion_Registros	;wreg free
   752  00275E                     
   753                           ;mainPic1.c: 74:     Timer1_Init();
   754  00275E  ECFE  F013         	call	_Timer1_Init	;wreg free
   755  002762                     
   756                           ;mainPic1.c: 75:     lcd_init();
   757  002762  EC32  F011         	call	_lcd_init	;wreg free
   758  002766                     l3272:
   759                           
   760                           ;mainPic1.c: 78:         controlSemaforo();
   761  002766  ECAA  F00F         	call	_controlSemaforo	;wreg free
   762  00276A  EFB3  F013         	goto	l3272
   763  00276E  EF00  F000         	goto	start
   764  002772                     __end_of_main:
   765                           	callstack 0
   766                           
   767 ;; *************** function _lcd_init *****************
   768 ;; Defined at:
   769 ;;		line 157 in file "./LCD_16x2_Library.h"
   770 ;; Parameters:    Size  Location     Type
   771 ;;		None
   772 ;; Auto vars:     Size  Location     Type
   773 ;;		None
   774 ;; Return value:  Size  Location     Type
   775 ;;                  1    wreg      void 
   776 ;; Registers used:
   777 ;;		wreg, status,2, cstack
   778 ;; Tracked objects:
   779 ;;		On entry : 0/0
   780 ;;		On exit  : 0/0
   781 ;;		Unchanged: 0/0
   782 ;; Data sizes:     COMRAM   BANK0   BANK1   BANK2   BANK3   BANK4   BANK5   BANK6   BANK7
   783 ;;      Params:         0       0       0       0       0       0       0       0       0
   784 ;;      Locals:         0       0       0       0       0       0       0       0       0
   785 ;;      Temps:          1       0       0       0       0       0       0       0       0
   786 ;;      Totals:         1       0       0       0       0       0       0       0       0
   787 ;;Total ram usage:        1 bytes
   788 ;; Hardware stack levels used: 1
   789 ;; Hardware stack levels required when called: 2
   790 ;; This function calls:
   791 ;;		_Lcd_Cmd
   792 ;;		_Lcd_Port
   793 ;; This function is called by:
   794 ;;		_main
   795 ;; This function uses a non-reentrant model
   796 ;;
   797                           
   798                           	psect	text1
   799  002264                     __ptext1:
   800                           	callstack 0
   801  002264                     _lcd_init:
   802                           	callstack 28
   803  002264                     
   804                           ;./LCD_16x2_Library.h: 159:   TRISB=0x00;
   805  002264  0E00               	movlw	0
   806  002266  6E93               	movwf	147,c	;volatile
   807  002268                     
   808                           ;./LCD_16x2_Library.h: 160:   Lcd_Port(0x00);
   809  002268  0E00               	movlw	0
   810  00226A  EC42  F012         	call	_Lcd_Port
   811  00226E                     
   812                           ;./LCD_16x2_Library.h: 161:    _delay((unsigned long)((20)*(8000000/4000.0)));
   813  00226E  0E34               	movlw	52
   814  002270  6E04               	movwf	??_lcd_init^0,c
   815  002272  0EF2               	movlw	242
   816  002274                     u3277:
   817  002274  2EE8               	decfsz	wreg,f,c
   818  002276  D7FE               	bra	u3277
   819  002278  2E04               	decfsz	??_lcd_init^0,f,c
   820  00227A  D7FC               	bra	u3277
   821                           
   822                           ;./LCD_16x2_Library.h: 162:   Lcd_Cmd(0x03);
   823  00227C  0E03               	movlw	3
   824  00227E  ECCC  F013         	call	_Lcd_Cmd
   825  002282                     
   826                           ;./LCD_16x2_Library.h: 163:    _delay((unsigned long)((5)*(8000000/4000.0)));
   827  002282  0E0D               	movlw	13
   828  002284  6E04               	movwf	??_lcd_init^0,c
   829  002286  0EFC               	movlw	252
   830  002288                     u3287:
   831  002288  2EE8               	decfsz	wreg,f,c
   832  00228A  D7FE               	bra	u3287
   833  00228C  2E04               	decfsz	??_lcd_init^0,f,c
   834  00228E  D7FC               	bra	u3287
   835  002290                     
   836                           ;./LCD_16x2_Library.h: 164:   Lcd_Cmd(0x03);
   837  002290  0E03               	movlw	3
   838  002292  ECCC  F013         	call	_Lcd_Cmd
   839                           
   840                           ;./LCD_16x2_Library.h: 165:    _delay((unsigned long)((11)*(8000000/4000.0)));
   841  002296  0E1D               	movlw	29
   842  002298  6E04               	movwf	??_lcd_init^0,c
   843  00229A  0E91               	movlw	145
   844  00229C                     u3297:
   845  00229C  2EE8               	decfsz	wreg,f,c
   846  00229E  D7FE               	bra	u3297
   847  0022A0  2E04               	decfsz	??_lcd_init^0,f,c
   848  0022A2  D7FC               	bra	u3297
   849  0022A4  F000               	nop	
   850  0022A6                     
   851                           ;./LCD_16x2_Library.h: 166:   Lcd_Cmd(0x03);
   852  0022A6  0E03               	movlw	3
   853  0022A8  ECCC  F013         	call	_Lcd_Cmd
   854  0022AC                     
   855                           ;./LCD_16x2_Library.h: 167:   Lcd_Cmd(0x02);
   856  0022AC  0E02               	movlw	2
   857  0022AE  ECCC  F013         	call	_Lcd_Cmd
   858  0022B2                     
   859                           ;./LCD_16x2_Library.h: 168:   Lcd_Cmd(0x02);
   860  0022B2  0E02               	movlw	2
   861  0022B4  ECCC  F013         	call	_Lcd_Cmd
   862  0022B8                     
   863                           ;./LCD_16x2_Library.h: 169:   Lcd_Cmd(0x08);
   864  0022B8  0E08               	movlw	8
   865  0022BA  ECCC  F013         	call	_Lcd_Cmd
   866  0022BE                     
   867                           ;./LCD_16x2_Library.h: 170:   Lcd_Cmd(0x00);
   868  0022BE  0E00               	movlw	0
   869  0022C0  ECCC  F013         	call	_Lcd_Cmd
   870  0022C4                     
   871                           ;./LCD_16x2_Library.h: 171:   Lcd_Cmd(0x0C);
   872  0022C4  0E0C               	movlw	12
   873  0022C6  ECCC  F013         	call	_Lcd_Cmd
   874  0022CA                     
   875                           ;./LCD_16x2_Library.h: 172:   Lcd_Cmd(0x00);
   876  0022CA  0E00               	movlw	0
   877  0022CC  ECCC  F013         	call	_Lcd_Cmd
   878  0022D0                     
   879                           ;./LCD_16x2_Library.h: 173:   Lcd_Cmd(0x06);
   880  0022D0  0E06               	movlw	6
   881  0022D2  ECCC  F013         	call	_Lcd_Cmd
   882  0022D6  0012               	return		;funcret
   883  0022D8                     __end_of_lcd_init:
   884                           	callstack 0
   885                           
   886 ;; *************** function _controlSemaforo *****************
   887 ;; Defined at:
   888 ;;		line 95 in file "mainPic1.c"
   889 ;; Parameters:    Size  Location     Type
   890 ;;		None
   891 ;; Auto vars:     Size  Location     Type
   892 ;;  Distancia       2   20[BANK0 ] unsigned short 
   893 ;; Return value:  Size  Location     Type
   894 ;;                  1    wreg      void 
   895 ;; Registers used:
   896 ;;		wreg, fsr1l, fsr1h, fsr2l, fsr2h, status,2, status,0, tblptrl, tblptrh, tblptru, prodl, prodh, cstack
   897 ;; Tracked objects:
   898 ;;		On entry : 0/0
   899 ;;		On exit  : 0/0
   900 ;;		Unchanged: 0/0
   901 ;; Data sizes:     COMRAM   BANK0   BANK1   BANK2   BANK3   BANK4   BANK5   BANK6   BANK7
   902 ;;      Params:         0       0       0       0       0       0       0       0       0
   903 ;;      Locals:         0       2       0       0       0       0       0       0       0
   904 ;;      Temps:          0       1       0       0       0       0       0       0       0
   905 ;;      Totals:         0       3       0       0       0       0       0       0       0
   906 ;;Total ram usage:        3 bytes
   907 ;; Hardware stack levels used: 1
   908 ;; Hardware stack levels required when called: 9
   909 ;; This function calls:
   910 ;;		_USART_SendString
   911 ;;		_delaymsled_red_green
   912 ;;		_delaymsled_yellow
   913 ;;		_funcion_SensorPir
   914 ;;		_llamar_ultrasonico
   915 ;; This function is called by:
   916 ;;		_main
   917 ;; This function uses a non-reentrant model
   918 ;;
   919                           
   920                           	psect	text2
   921  001F54                     __ptext2:
   922                           	callstack 0
   923  001F54                     _controlSemaforo:
   924                           	callstack 21
   925  001F54                     
   926                           ;mainPic1.c: 96:     TRISD = 0;
   927  001F54  0E00               	movlw	0
   928  001F56  6E95               	movwf	149,c	;volatile
   929  001F58                     
   930                           ;mainPic1.c: 97:     LATD0 = 1;
   931  001F58  808C               	bsf	3980,0,c	;volatile
   932  001F5A                     
   933                           ;mainPic1.c: 98:     uint16_t Distancia;;mainPic1.c: 99:     llamar_ultrasonico(Distanci
      +                          a);
   934  001F5A  C0BC  F05C         	movff	controlSemaforo@Distancia,llamar_ultrasonico@Distancia
   935  001F5E  C0BD  F05D         	movff	controlSemaforo@Distancia+1,llamar_ultrasonico@Distancia+1
   936  001F62  ECA6  F011         	call	_llamar_ultrasonico	;wreg free
   937  001F66                     
   938                           ;mainPic1.c: 100:     _delay((unsigned long)((7)*(8000000/4000.0)));
   939  001F66  0E13               	movlw	19
   940  001F68  0100               	movlb	0	; () banked
   941  001F6A  6FBB               	movwf	??_controlSemaforo& (0+255),b
   942  001F6C  0E2D               	movlw	45
   943  001F6E                     u3307:
   944  001F6E  2EE8               	decfsz	wreg,f,c
   945  001F70  D7FE               	bra	u3307
   946  001F72  2FBB               	decfsz	??_controlSemaforo& (0+255),f,b
   947  001F74  D7FC               	bra	u3307
   948  001F76                     
   949                           ;mainPic1.c: 102:     if(PORTAbits.RA2 == 1){
   950  001F76  A480               	btfss	128,2,c	;volatile
   951  001F78  EFC0  F00F         	goto	u3241
   952  001F7C  EFC2  F00F         	goto	u3240
   953  001F80                     u3241:
   954  001F80  EFC9  F00F         	goto	l3220
   955  001F84                     u3240:
   956  001F84                     
   957                           ;mainPic1.c: 103:         LATD4 = 1;
   958  001F84  888C               	bsf	3980,4,c	;volatile
   959  001F86                     
   960                           ;mainPic1.c: 104:         USART_SendString("A");
   961  001F86  0E26               	movlw	low STR_1
   962  001F88  6E02               	movwf	USART_SendString@out^0,c
   963  001F8A  0E08               	movlw	high STR_1
   964  001F8C  6E03               	movwf	(USART_SendString@out+1)^0,c
   965  001F8E  EC84  F013         	call	_USART_SendString	;wreg free
   966  001F92                     l3220:
   967                           
   968                           ;mainPic1.c: 107:     delaymsled_red_green();
   969  001F92  EC70  F012         	call	_delaymsled_red_green	;wreg free
   970  001F96                     
   971                           ;mainPic1.c: 108:     LATD0 = 0;
   972  001F96  908C               	bcf	3980,0,c	;volatile
   973  001F98                     
   974                           ;mainPic1.c: 110:      if(PORTDbits.RD0 == 0){
   975  001F98  B083               	btfsc	131,0,c	;volatile
   976  001F9A  EFD1  F00F         	goto	u3251
   977  001F9E  EFD3  F00F         	goto	u3250
   978  001FA2                     u3251:
   979  001FA2  EFE8  F00F         	goto	l3238
   980  001FA6                     u3250:
   981  001FA6                     
   982                           ;mainPic1.c: 111:         LATD1 = 1;
   983  001FA6  828C               	bsf	3980,1,c	;volatile
   984  001FA8                     
   985                           ;mainPic1.c: 112:         llamar_ultrasonico(Distancia);
   986  001FA8  C0BC  F05C         	movff	controlSemaforo@Distancia,llamar_ultrasonico@Distancia
   987  001FAC  C0BD  F05D         	movff	controlSemaforo@Distancia+1,llamar_ultrasonico@Distancia+1
   988  001FB0  ECA6  F011         	call	_llamar_ultrasonico	;wreg free
   989  001FB4                     
   990                           ;mainPic1.c: 113:         LATD4 = 0;
   991  001FB4  988C               	bcf	3980,4,c	;volatile
   992  001FB6                     
   993                           ;mainPic1.c: 114:         USART_SendString("D");
   994  001FB6  0E28               	movlw	low STR_2
   995  001FB8  6E02               	movwf	USART_SendString@out^0,c
   996  001FBA  0E08               	movlw	high STR_2
   997  001FBC  6E03               	movwf	(USART_SendString@out+1)^0,c
   998  001FBE  EC84  F013         	call	_USART_SendString	;wreg free
   999  001FC2                     
  1000                           ;mainPic1.c: 115:         LATD1 = 0;
  1001  001FC2  928C               	bcf	3980,1,c	;volatile
  1002  001FC4                     
  1003                           ;mainPic1.c: 116:         funcion_SensorPir(0);
  1004  001FC4  0E00               	movlw	0
  1005  001FC6  6E13               	movwf	(funcion_SensorPir@bandera+1)^0,c
  1006  001FC8  0E00               	movlw	0
  1007  001FCA  6E12               	movwf	funcion_SensorPir@bandera^0,c
  1008  001FCC  EC08  F010         	call	_funcion_SensorPir	;wreg free
  1009  001FD0                     l3238:
  1010                           
  1011                           ;mainPic1.c: 119:     if(PORTDbits.RD1 == 0){
  1012  001FD0  B283               	btfsc	131,1,c	;volatile
  1013  001FD2  EFED  F00F         	goto	u3261
  1014  001FD6  EFEF  F00F         	goto	u3260
  1015  001FDA                     u3261:
  1016  001FDA  EF07  F010         	goto	l175
  1017  001FDE                     u3260:
  1018  001FDE                     
  1019                           ;mainPic1.c: 120:         LATD2 = 1;
  1020  001FDE  848C               	bsf	3980,2,c	;volatile
  1021  001FE0                     
  1022                           ;mainPic1.c: 121:         llamar_ultrasonico(Distancia);
  1023  001FE0  C0BC  F05C         	movff	controlSemaforo@Distancia,llamar_ultrasonico@Distancia
  1024  001FE4  C0BD  F05D         	movff	controlSemaforo@Distancia+1,llamar_ultrasonico@Distancia+1
  1025  001FE8  ECA6  F011         	call	_llamar_ultrasonico	;wreg free
  1026  001FEC                     
  1027                           ;mainPic1.c: 122:         funcion_SensorPir(1);
  1028  001FEC  0E00               	movlw	0
  1029  001FEE  6E13               	movwf	(funcion_SensorPir@bandera+1)^0,c
  1030  001FF0  0E01               	movlw	1
  1031  001FF2  6E12               	movwf	funcion_SensorPir@bandera^0,c
  1032  001FF4  EC08  F010         	call	_funcion_SensorPir	;wreg free
  1033  001FF8                     
  1034                           ;mainPic1.c: 123:         LATD2 = 0;
  1035  001FF8  948C               	bcf	3980,2,c	;volatile
  1036  001FFA                     
  1037                           ;mainPic1.c: 124:         LATD1 = 1;
  1038  001FFA  828C               	bsf	3980,1,c	;volatile
  1039  001FFC                     
  1040                           ;mainPic1.c: 125:         USART_SendString("S");
  1041  001FFC  0E2A               	movlw	low STR_3
  1042  001FFE  6E02               	movwf	USART_SendString@out^0,c
  1043  002000  0E08               	movlw	high STR_3
  1044  002002  6E03               	movwf	(USART_SendString@out+1)^0,c
  1045  002004  EC84  F013         	call	_USART_SendString	;wreg free
  1046  002008                     
  1047                           ;mainPic1.c: 126:         delaymsled_yellow();
  1048  002008  ECDC  F013         	call	_delaymsled_yellow	;wreg free
  1049  00200C                     
  1050                           ;mainPic1.c: 127:         LATD1 = 0;
  1051  00200C  928C               	bcf	3980,1,c	;volatile
  1052  00200E                     l175:
  1053  00200E  0012               	return		;funcret
  1054  002010                     __end_of_controlSemaforo:
  1055                           	callstack 0
  1056                           
  1057 ;; *************** function _llamar_ultrasonico *****************
  1058 ;; Defined at:
  1059 ;;		line 224 in file "mainPic1.c"
  1060 ;; Parameters:    Size  Location     Type
  1061 ;;  Distancia       2   91[COMRAM] unsigned short 
  1062 ;; Auto vars:     Size  Location     Type
  1063 ;;		None
  1064 ;; Return value:  Size  Location     Type
  1065 ;;                  1    wreg      void 
  1066 ;; Registers used:
  1067 ;;		wreg, fsr1l, fsr1h, fsr2l, fsr2h, status,2, status,0, tblptrl, tblptrh, tblptru, prodl, prodh, cstack
  1068 ;; Tracked objects:
  1069 ;;		On entry : 0/0
  1070 ;;		On exit  : 0/0
  1071 ;;		Unchanged: 0/0
  1072 ;; Data sizes:     COMRAM   BANK0   BANK1   BANK2   BANK3   BANK4   BANK5   BANK6   BANK7
  1073 ;;      Params:         2       0       0       0       0       0       0       0       0
  1074 ;;      Locals:         0       0       0       0       0       0       0       0       0
  1075 ;;      Temps:          2       0       0       0       0       0       0       0       0
  1076 ;;      Totals:         4       0       0       0       0       0       0       0       0
  1077 ;;Total ram usage:        4 bytes
  1078 ;; Hardware stack levels used: 1
  1079 ;; Hardware stack levels required when called: 8
  1080 ;; This function calls:
  1081 ;;		_Obtener_Distancia
  1082 ;;		_lcd_gotoxy
  1083 ;;		_lcd_putc
  1084 ;;		_sprintf
  1085 ;; This function is called by:
  1086 ;;		_controlSemaforo
  1087 ;; This function uses a non-reentrant model
  1088 ;;
  1089                           
  1090                           	psect	text3
  1091  00234C                     __ptext3:
  1092                           	callstack 0
  1093  00234C                     _llamar_ultrasonico:
  1094                           	callstack 21
  1095  00234C                     
  1096                           ;mainPic1.c: 225:     Distancia = Obtener_Distancia();
  1097  00234C  ECAA  F010         	call	_Obtener_Distancia	;wreg free
  1098  002350  C008  F05C         	movff	?_Obtener_Distancia,llamar_ultrasonico@Distancia
  1099  002354  C009  F05D         	movff	?_Obtener_Distancia+1,llamar_ultrasonico@Distancia+1
  1100                           
  1101                           ;mainPic1.c: 226:     lcd_gotoxy(1,1);
  1102  002358  0E01               	movlw	1
  1103  00235A  6E04               	movwf	lcd_gotoxy@b^0,c
  1104  00235C  0E01               	movlw	1
  1105  00235E  ECDE  F011         	call	_lcd_gotoxy
  1106  002362                     
  1107                           ;mainPic1.c: 227:     lcd_putc(" INFO ULTRASONICO ");
  1108  002362  0E01               	movlw	low STR_5
  1109  002364  6E05               	movwf	lcd_putc@a^0,c
  1110  002366  0E08               	movlw	high STR_5
  1111  002368  6E06               	movwf	(lcd_putc@a+1)^0,c
  1112  00236A  ECF3  F010         	call	_lcd_putc	;wreg free
  1113  00236E                     
  1114                           ;mainPic1.c: 228:     sprintf(LCD_Buffer,"Distancia: %03dcm", Distancia);
  1115  00236E  0E88               	movlw	low _LCD_Buffer
  1116  002370  0100               	movlb	0	; () banked
  1117  002372  6FA8               	movwf	sprintf@s& (0+255),b
  1118  002374  0E00               	movlw	high _LCD_Buffer
  1119  002376  6FA9               	movwf	(sprintf@s+1)& (0+255),b
  1120  002378  0E14               	movlw	low STR_6
  1121  00237A  6FAA               	movwf	sprintf@fmt& (0+255),b
  1122  00237C  0E08               	movlw	high STR_6
  1123  00237E  6FAB               	movwf	(sprintf@fmt+1)& (0+255),b
  1124  002380  C05C  F0AC         	movff	llamar_ultrasonico@Distancia,?_sprintf+4
  1125  002384  C05D  F0AD         	movff	llamar_ultrasonico@Distancia+1,?_sprintf+5
  1126  002388  EC9D  F012         	call	_sprintf	;wreg free
  1127  00238C                     
  1128                           ;mainPic1.c: 229:     lcd_gotoxy(2,1);
  1129  00238C  0E01               	movlw	1
  1130  00238E  6E04               	movwf	lcd_gotoxy@b^0,c
  1131  002390  0E02               	movlw	2
  1132  002392  ECDE  F011         	call	_lcd_gotoxy
  1133  002396                     
  1134                           ;mainPic1.c: 230:     lcd_putc(LCD_Buffer);
  1135  002396  0E88               	movlw	low _LCD_Buffer
  1136  002398  6E05               	movwf	lcd_putc@a^0,c
  1137  00239A  0E00               	movlw	high _LCD_Buffer
  1138  00239C  6E06               	movwf	(lcd_putc@a+1)^0,c
  1139  00239E  ECF3  F010         	call	_lcd_putc	;wreg free
  1140  0023A2                     
  1141                           ;mainPic1.c: 231:     _delay((unsigned long)((200)*(8000000/4000.0)));
  1142  0023A2  0E03               	movlw	3
  1143  0023A4  6E5F               	movwf	(??_llamar_ultrasonico+1)^0,c
  1144  0023A6  0E08               	movlw	8
  1145  0023A8  6E5E               	movwf	??_llamar_ultrasonico^0,c
  1146  0023AA  0E77               	movlw	119
  1147  0023AC                     u3317:
  1148  0023AC  2EE8               	decfsz	wreg,f,c
  1149  0023AE  D7FE               	bra	u3317
  1150  0023B0  2E5E               	decfsz	??_llamar_ultrasonico^0,f,c
  1151  0023B2  D7FC               	bra	u3317
  1152  0023B4  2E5F               	decfsz	(??_llamar_ultrasonico+1)^0,f,c
  1153  0023B6  D7FA               	bra	u3317
  1154  0023B8  F000               	nop	
  1155  0023BA  0012               	return		;funcret
  1156  0023BC                     __end_of_llamar_ultrasonico:
  1157                           	callstack 0
  1158                           
  1159 ;; *************** function _sprintf *****************
  1160 ;; Defined at:
  1161 ;;		line 9 in file "C:\Program Files\Microchip\xc8\v2.36\pic\sources\c99\common\nf_sprintf.c"
  1162 ;; Parameters:    Size  Location     Type
  1163 ;;  s               2    0[BANK0 ] PTR unsigned char 
  1164 ;;		 -> LCD_Buffer(32), 
  1165 ;;  fmt             2    2[BANK0 ] PTR const unsigned char 
  1166 ;;		 -> STR_6(18), 
  1167 ;; Auto vars:     Size  Location     Type
  1168 ;;  f              11    8[BANK0 ] struct _IO_FILE
  1169 ;;  ap              2    6[BANK0 ] PTR void [1]
  1170 ;;		 -> ?_sprintf(2), 
  1171 ;;  ret             2    0        int 
  1172 ;; Return value:  Size  Location     Type
  1173 ;;                  2    0[BANK0 ] int 
  1174 ;; Registers used:
  1175 ;;		wreg, fsr1l, fsr1h, fsr2l, fsr2h, status,2, status,0, tblptrl, tblptrh, tblptru, prodl, prodh, cstack
  1176 ;; Tracked objects:
  1177 ;;		On entry : 0/0
  1178 ;;		On exit  : 0/0
  1179 ;;		Unchanged: 0/0
  1180 ;; Data sizes:     COMRAM   BANK0   BANK1   BANK2   BANK3   BANK4   BANK5   BANK6   BANK7
  1181 ;;      Params:         0       6       0       0       0       0       0       0       0
  1182 ;;      Locals:         0      13       0       0       0       0       0       0       0
  1183 ;;      Temps:          0       0       0       0       0       0       0       0       0
  1184 ;;      Totals:         0      19       0       0       0       0       0       0       0
  1185 ;;Total ram usage:       19 bytes
  1186 ;; Hardware stack levels used: 1
  1187 ;; Hardware stack levels required when called: 7
  1188 ;; This function calls:
  1189 ;;		_vfprintf
  1190 ;; This function is called by:
  1191 ;;		_llamar_ultrasonico
  1192 ;; This function uses a non-reentrant model
  1193 ;;
  1194                           
  1195                           	psect	text4
  1196  00253A                     __ptext4:
  1197                           	callstack 0
  1198  00253A                     _sprintf:
  1199                           	callstack 21
  1200  00253A  0EAC               	movlw	low (?_sprintf+4)
  1201  00253C  0100               	movlb	0	; () banked
  1202  00253E  6FAE               	movwf	sprintf@ap& (0+255),b
  1203  002540  0E00               	movlw	high (?_sprintf+4)
  1204  002542  6FAF               	movwf	(sprintf@ap+1)& (0+255),b
  1205  002544  C0A8  F0B0         	movff	sprintf@s,sprintf@f
  1206  002548  C0A9  F0B1         	movff	sprintf@s+1,sprintf@f+1
  1207  00254C                     
  1208                           ; BSR set to: 0
  1209  00254C  0E00               	movlw	0
  1210  00254E  6FB4               	movwf	(sprintf@f+4)& (0+255),b
  1211  002550  0E00               	movlw	0
  1212  002552  6FB3               	movwf	(sprintf@f+3)& (0+255),b
  1213  002554                     
  1214                           ; BSR set to: 0
  1215  002554  0E00               	movlw	0
  1216  002556  6FBA               	movwf	(sprintf@f+10)& (0+255),b
  1217  002558  0E00               	movlw	0
  1218  00255A  6FB9               	movwf	(sprintf@f+9)& (0+255),b
  1219  00255C                     
  1220                           ; BSR set to: 0
  1221  00255C  0EB0               	movlw	low sprintf@f
  1222  00255E  6E54               	movwf	vfprintf@fp^0,c
  1223  002560  0E00               	movlw	high sprintf@f
  1224  002562  6E55               	movwf	(vfprintf@fp+1)^0,c
  1225  002564  C0AA  F056         	movff	sprintf@fmt,vfprintf@fmt
  1226  002568  C0AB  F057         	movff	sprintf@fmt+1,vfprintf@fmt+1
  1227  00256C  0EAE               	movlw	low sprintf@ap
  1228  00256E  6E58               	movwf	vfprintf@ap^0,c
  1229  002570  0E00               	movlw	high sprintf@ap
  1230  002572  6E59               	movwf	(vfprintf@ap+1)^0,c
  1231  002574  EC11  F012         	call	_vfprintf	;wreg free
  1232  002578  0100               	movlb	0	; () banked
  1233  00257A  51B3               	movf	(sprintf@f+3)& (0+255),w,b
  1234  00257C  25A8               	addwf	sprintf@s& (0+255),w,b
  1235  00257E  6ED9               	movwf	fsr2l,c
  1236  002580  51B4               	movf	(sprintf@f+4)& (0+255),w,b
  1237  002582  21A9               	addwfc	(sprintf@s+1)& (0+255),w,b
  1238  002584  6EDA               	movwf	fsr2h,c
  1239  002586  0E00               	movlw	0
  1240  002588  6EDF               	movwf	indf2,c
  1241  00258A                     
  1242                           ; BSR set to: 0
  1243  00258A  0012               	return		;funcret
  1244  00258C                     __end_of_sprintf:
  1245                           	callstack 0
  1246                           
  1247 ;; *************** function _vfprintf *****************
  1248 ;; Defined at:
  1249 ;;		line 1390 in file "C:\Program Files\Microchip\xc8\v2.36\pic\sources\c99\common\doprnt.c"
  1250 ;; Parameters:    Size  Location     Type
  1251 ;;  fp              2   83[COMRAM] PTR struct _IO_FILE
  1252 ;;		 -> sprintf@f(11), 
  1253 ;;  fmt             2   85[COMRAM] PTR const unsigned char 
  1254 ;;		 -> STR_6(18), 
  1255 ;;  ap              2   87[COMRAM] PTR PTR void 
  1256 ;;		 -> sprintf@ap(2), 
  1257 ;; Auto vars:     Size  Location     Type
  1258 ;;  cfmt            2   89[COMRAM] PTR unsigned char 
  1259 ;;		 -> STR_6(18), 
  1260 ;; Return value:  Size  Location     Type
  1261 ;;                  2   83[COMRAM] int 
  1262 ;; Registers used:
  1263 ;;		wreg, fsr1l, fsr1h, fsr2l, fsr2h, status,2, status,0, tblptrl, tblptrh, tblptru, prodl, prodh, cstack
  1264 ;; Tracked objects:
  1265 ;;		On entry : 0/0
  1266 ;;		On exit  : 0/0
  1267 ;;		Unchanged: 0/0
  1268 ;; Data sizes:     COMRAM   BANK0   BANK1   BANK2   BANK3   BANK4   BANK5   BANK6   BANK7
  1269 ;;      Params:         6       0       0       0       0       0       0       0       0
  1270 ;;      Locals:         2       0       0       0       0       0       0       0       0
  1271 ;;      Temps:          0       0       0       0       0       0       0       0       0
  1272 ;;      Totals:         8       0       0       0       0       0       0       0       0
  1273 ;;Total ram usage:        8 bytes
  1274 ;; Hardware stack levels used: 1
  1275 ;; Hardware stack levels required when called: 6
  1276 ;; This function calls:
  1277 ;;		_vfpfcnvrt
  1278 ;; This function is called by:
  1279 ;;		_sprintf
  1280 ;; This function uses a non-reentrant model
  1281 ;;
  1282                           
  1283                           	psect	text5
  1284  002422                     __ptext5:
  1285                           	callstack 0
  1286  002422                     _vfprintf:
  1287                           	callstack 21
  1288  002422                     
  1289                           ;C:\Program Files\Microchip\xc8\v2.36\pic\sources\c99\common\doprnt.c: 1390: int vfprint
      +                          f(FILE *fp, const char *fmt, va_list ap);C:\Program Files\Microchip\xc8\v2.36\pic\source
      +                          s\c99\common\doprnt.c: 1391: {;C:\Program Files\Microchip\xc8\v2.36\pic\sources\c99\comm
      +                          on\doprnt.c: 1393:     char *cfmt;;C:\Program Files\Microchip\xc8\v2.36\pic\sources\c99\
      +                          common\doprnt.c: 1395:     cfmt = (char *)fmt;
  1290  002422  C056  F05A         	movff	vfprintf@fmt,vfprintf@cfmt
  1291  002426  C057  F05B         	movff	vfprintf@fmt+1,vfprintf@cfmt+1
  1292  00242A                     
  1293                           ;C:\Program Files\Microchip\xc8\v2.36\pic\sources\c99\common\doprnt.c: 1396:     nout = 
      +                          0;
  1294  00242A  0E00               	movlw	0
  1295  00242C  0100               	movlb	0	; () banked
  1296  00242E  6F61               	movwf	(_nout+1)& (0+255),b
  1297  002430  0E00               	movlw	0
  1298  002432  6F60               	movwf	_nout& (0+255),b
  1299                           
  1300                           ;C:\Program Files\Microchip\xc8\v2.36\pic\sources\c99\common\doprnt.c: 1397:     while (
      +                          *cfmt) {
  1301  002434  EF2F  F012         	goto	l2628
  1302  002438                     l2626:
  1303                           
  1304                           ; BSR set to: 0
  1305                           ;C:\Program Files\Microchip\xc8\v2.36\pic\sources\c99\common\doprnt.c: 1398:         nou
      +                          t += vfpfcnvrt(fp, &cfmt, ap);
  1306  002438  C054  F040         	movff	vfprintf@fp,vfpfcnvrt@fp
  1307  00243C  C055  F041         	movff	vfprintf@fp+1,vfpfcnvrt@fp+1
  1308  002440  0E5A               	movlw	low vfprintf@cfmt
  1309  002442  6E42               	movwf	vfpfcnvrt@fmt^0,c
  1310  002444  0E00               	movlw	high vfprintf@cfmt
  1311  002446  6E43               	movwf	(vfpfcnvrt@fmt+1)^0,c
  1312  002448  C058  F044         	movff	vfprintf@ap,vfpfcnvrt@ap
  1313  00244C  C059  F045         	movff	vfprintf@ap+1,vfpfcnvrt@ap+1
  1314  002450  EC45  F008         	call	_vfpfcnvrt	;wreg free
  1315  002454  5040               	movf	?_vfpfcnvrt^0,w,c
  1316  002456  0100               	movlb	0	; () banked
  1317  002458  2760               	addwf	_nout& (0+255),f,b
  1318  00245A  5041               	movf	(?_vfpfcnvrt+1)^0,w,c
  1319  00245C  2361               	addwfc	(_nout+1)& (0+255),f,b
  1320  00245E                     l2628:
  1321                           
  1322                           ; BSR set to: 0
  1323                           ;C:\Program Files\Microchip\xc8\v2.36\pic\sources\c99\common\doprnt.c: 1397:     while (
      +                          *cfmt) {
  1324  00245E  C05A  FFF6         	movff	vfprintf@cfmt,tblptrl
  1325  002462  C05B  FFF7         	movff	vfprintf@cfmt+1,tblptrh
  1326  002466                     	if	0	;tblptru may be non-zero
  1327  002466                     	endif
  1328  002466                     	if	0	;tblptru may be non-zero
  1329  002466                     	endif
  1330  002466  0008               	tblrd		*
  1331  002468  50F5               	movf	tablat,w,c
  1332  00246A  0900               	iorlw	0
  1333  00246C  A4D8               	btfss	status,2,c
  1334  00246E  EF3B  F012         	goto	u2291
  1335  002472  EF3D  F012         	goto	u2290
  1336  002476                     u2291:
  1337  002476  EF1C  F012         	goto	l2626
  1338  00247A                     u2290:
  1339  00247A                     
  1340                           ; BSR set to: 0
  1341                           ;C:\Program Files\Microchip\xc8\v2.36\pic\sources\c99\common\doprnt.c: 1400:     return 
      +                          nout;
  1342  00247A  C060  F054         	movff	_nout,?_vfprintf
  1343  00247E  C061  F055         	movff	_nout+1,?_vfprintf+1
  1344  002482                     
  1345                           ; BSR set to: 0
  1346  002482  0012               	return		;funcret
  1347  002484                     __end_of_vfprintf:
  1348                           	callstack 0
  1349                           
  1350 ;; *************** function _vfpfcnvrt *****************
  1351 ;; Defined at:
  1352 ;;		line 692 in file "C:\Program Files\Microchip\xc8\v2.36\pic\sources\c99\common\doprnt.c"
  1353 ;; Parameters:    Size  Location     Type
  1354 ;;  fp              2   63[COMRAM] PTR struct _IO_FILE
  1355 ;;		 -> sprintf@f(11), 
  1356 ;;  fmt             2   65[COMRAM] PTR PTR unsigned char 
  1357 ;;		 -> vfprintf@cfmt(2), 
  1358 ;;  ap              2   67[COMRAM] PTR PTR void 
  1359 ;;		 -> sprintf@ap(2), 
  1360 ;; Auto vars:     Size  Location     Type
  1361 ;;  ll              8   73[COMRAM] long long 
  1362 ;;  llu             8    0        unsigned long long 
  1363 ;;  f               4    0        unsigned long long 
  1364 ;;  vp              3    0        PTR void 
  1365 ;;  ct              3    0        unsigned char [3]
  1366 ;;  cp              3    0        PTR unsigned char 
  1367 ;;  done            2   81[COMRAM] int 
  1368 ;;  i               2    0        int 
  1369 ;;  c               1    0        unsigned char 
  1370 ;; Return value:  Size  Location     Type
  1371 ;;                  2   63[COMRAM] int 
  1372 ;; Registers used:
  1373 ;;		wreg, fsr1l, fsr1h, fsr2l, fsr2h, status,2, status,0, tblptrl, tblptrh, tblptru, prodl, prodh, cstack
  1374 ;; Tracked objects:
  1375 ;;		On entry : 0/0
  1376 ;;		On exit  : 0/0
  1377 ;;		Unchanged: 0/0
  1378 ;; Data sizes:     COMRAM   BANK0   BANK1   BANK2   BANK3   BANK4   BANK5   BANK6   BANK7
  1379 ;;      Params:         6       0       0       0       0       0       0       0       0
  1380 ;;      Locals:        10       0       0       0       0       0       0       0       0
  1381 ;;      Temps:          4       0       0       0       0       0       0       0       0
  1382 ;;      Totals:        20       0       0       0       0       0       0       0       0
  1383 ;;Total ram usage:       20 bytes
  1384 ;; Hardware stack levels used: 1
  1385 ;; Hardware stack levels required when called: 5
  1386 ;; This function calls:
  1387 ;;		_atoi
  1388 ;;		_dtoa
  1389 ;;		_fputc
  1390 ;;		_isdigit
  1391 ;; This function is called by:
  1392 ;;		_vfprintf
  1393 ;; This function uses a non-reentrant model
  1394 ;;
  1395                           
  1396                           	psect	text6
  1397  00108A                     __ptext6:
  1398                           	callstack 0
  1399  00108A                     _vfpfcnvrt:
  1400                           	callstack 21
  1401  00108A                     
  1402                           ;C:\Program Files\Microchip\xc8\v2.36\pic\sources\c99\common\doprnt.c: 692: static int v
      +                          fpfcnvrt(FILE *fp, char *fmt[], va_list ap);C:\Program Files\Microchip\xc8\v2.36\pic\sou
      +                          rces\c99\common\doprnt.c: 693: {;C:\Program Files\Microchip\xc8\v2.36\pic\sources\c99\co
      +                          mmon\doprnt.c: 694:     char c, *cp, ct[3];;C:\Program Files\Microchip\xc8\v2.36\pic\sou
      +                          rces\c99\common\doprnt.c: 695:     int done, i;;C:\Program Files\Microchip\xc8\v2.36\pic
      +                          \sources\c99\common\doprnt.c: 696:     long long ll;;C:\Program Files\Microchip\xc8\v2.3
      +                          6\pic\sources\c99\common\doprnt.c: 697:     unsigned long long llu;
  1403  00108A  C042  FFD9         	movff	vfpfcnvrt@fmt,fsr2l
  1404  00108E  C043  FFDA         	movff	vfpfcnvrt@fmt+1,fsr2h
  1405  001092  CFDE FFF6          	movff	postinc2,tblptrl
  1406  001096  CFDD FFF7          	movff	postdec2,tblptrh
  1407  00109A                     	if	0	;tblptru may be non-zero
  1408  00109A                     	endif
  1409  00109A                     	if	0	;tblptru may be non-zero
  1410  00109A                     	endif
  1411  00109A  0008               	tblrd		*
  1412  00109C  50F5               	movf	tablat,w,c
  1413  00109E  0A25               	xorlw	37
  1414  0010A0  A4D8               	btfss	status,2,c
  1415  0010A2  EF55  F008         	goto	u2161
  1416  0010A6  EF57  F008         	goto	u2160
  1417  0010AA                     u2161:
  1418  0010AA  EFD7  F009         	goto	l2552
  1419  0010AE                     u2160:
  1420  0010AE                     
  1421                           ;C:\Program Files\Microchip\xc8\v2.36\pic\sources\c99\common\doprnt.c: 703:         ++*f
      +                          mt;
  1422  0010AE  C042  FFD9         	movff	vfpfcnvrt@fmt,fsr2l
  1423  0010B2  C043  FFDA         	movff	vfpfcnvrt@fmt+1,fsr2h
  1424  0010B6  2ADE               	incf	postinc2,f,c
  1425  0010B8  0E00               	movlw	0
  1426  0010BA  22DD               	addwfc	postdec2,f,c
  1427  0010BC                     
  1428                           ;C:\Program Files\Microchip\xc8\v2.36\pic\sources\c99\common\doprnt.c: 705:         flag
      +                          s = width = 0;
  1429  0010BC  0E00               	movlw	0
  1430  0010BE  0100               	movlb	0	; () banked
  1431  0010C0  6F63               	movwf	(_width+1)& (0+255),b
  1432  0010C2  0E00               	movlw	0
  1433  0010C4  6F62               	movwf	_width& (0+255),b
  1434  0010C6  C062  F066         	movff	_width,_flags
  1435  0010CA  C063  F067         	movff	_width+1,_flags+1
  1436  0010CE                     
  1437                           ; BSR set to: 0
  1438                           ;C:\Program Files\Microchip\xc8\v2.36\pic\sources\c99\common\doprnt.c: 706:         prec
      +                           = -1;
  1439  0010CE  6964               	setf	_prec& (0+255),b
  1440  0010D0  6965               	setf	(_prec+1)& (0+255),b
  1441  0010D2                     
  1442                           ; BSR set to: 0
  1443                           ;C:\Program Files\Microchip\xc8\v2.36\pic\sources\c99\common\doprnt.c: 710:         done
      +                           = 0;
  1444  0010D2  0E00               	movlw	0
  1445  0010D4  6E53               	movwf	(vfpfcnvrt@done+1)^0,c
  1446  0010D6  0E00               	movlw	0
  1447  0010D8  6E52               	movwf	vfpfcnvrt@done^0,c
  1448                           
  1449                           ;C:\Program Files\Microchip\xc8\v2.36\pic\sources\c99\common\doprnt.c: 711:         whil
      +                          e (!done) {
  1450  0010DA  EFBA  F008         	goto	l2506
  1451  0010DE                     l2480:
  1452                           
  1453                           ;C:\Program Files\Microchip\xc8\v2.36\pic\sources\c99\common\doprnt.c: 714:             
      +                                  flags |= (1 << 0);
  1454  0010DE  0100               	movlb	0	; () banked
  1455  0010E0  8166               	bsf	_flags& (0+255),0,b
  1456  0010E2                     l2482:
  1457                           
  1458                           ; BSR set to: 0
  1459                           ;C:\Program Files\Microchip\xc8\v2.36\pic\sources\c99\common\doprnt.c: 715:             
      +                                  ++*fmt;
  1460  0010E2  C042  FFD9         	movff	vfpfcnvrt@fmt,fsr2l
  1461  0010E6  C043  FFDA         	movff	vfpfcnvrt@fmt+1,fsr2h
  1462  0010EA  2ADE               	incf	postinc2,f,c
  1463  0010EC  0E00               	movlw	0
  1464  0010EE  22DD               	addwfc	postdec2,f,c
  1465                           
  1466                           ;C:\Program Files\Microchip\xc8\v2.36\pic\sources\c99\common\doprnt.c: 716:             
      +                                  break;
  1467  0010F0  EFBA  F008         	goto	l2506
  1468  0010F4                     l2484:
  1469                           
  1470                           ;C:\Program Files\Microchip\xc8\v2.36\pic\sources\c99\common\doprnt.c: 718:             
      +                                  flags |= (1 << 1);
  1471  0010F4  0100               	movlb	0	; () banked
  1472  0010F6  8366               	bsf	_flags& (0+255),1,b
  1473  0010F8  EF71  F008         	goto	l2482
  1474  0010FC                     l2488:
  1475                           
  1476                           ;C:\Program Files\Microchip\xc8\v2.36\pic\sources\c99\common\doprnt.c: 722:             
      +                                  flags |= (1 << 2);
  1477  0010FC  0100               	movlb	0	; () banked
  1478  0010FE  8566               	bsf	_flags& (0+255),2,b
  1479  001100  EF71  F008         	goto	l2482
  1480  001104                     l2492:
  1481                           
  1482                           ;C:\Program Files\Microchip\xc8\v2.36\pic\sources\c99\common\doprnt.c: 726:             
      +                                  flags |= (1 << 3);
  1483  001104  0100               	movlb	0	; () banked
  1484  001106  8766               	bsf	_flags& (0+255),3,b
  1485  001108  EF71  F008         	goto	l2482
  1486  00110C                     l2496:
  1487                           
  1488                           ;C:\Program Files\Microchip\xc8\v2.36\pic\sources\c99\common\doprnt.c: 730:             
      +                                  flags |= (1 << 4);
  1489  00110C  0100               	movlb	0	; () banked
  1490  00110E  8966               	bsf	_flags& (0+255),4,b
  1491  001110  EF71  F008         	goto	l2482
  1492  001114                     l2500:
  1493                           
  1494                           ;C:\Program Files\Microchip\xc8\v2.36\pic\sources\c99\common\doprnt.c: 734:             
      +                                  done = 1;
  1495  001114  0E00               	movlw	0
  1496  001116  6E53               	movwf	(vfpfcnvrt@done+1)^0,c
  1497  001118  0E01               	movlw	1
  1498  00111A  6E52               	movwf	vfpfcnvrt@done^0,c
  1499                           
  1500                           ;C:\Program Files\Microchip\xc8\v2.36\pic\sources\c99\common\doprnt.c: 735:             
      +                                  break;
  1501  00111C  EFBA  F008         	goto	l2506
  1502  001120                     l2504:
  1503  001120  C042  FFD9         	movff	vfpfcnvrt@fmt,fsr2l
  1504  001124  C043  FFDA         	movff	vfpfcnvrt@fmt+1,fsr2h
  1505  001128  CFDE FFF6          	movff	postinc2,tblptrl
  1506  00112C  CFDD FFF7          	movff	postdec2,tblptrh
  1507  001130                     	if	0	;tblptru may be non-zero
  1508  001130                     	endif
  1509  001130                     	if	0	;tblptru may be non-zero
  1510  001130                     	endif
  1511  001130  0008               	tblrd		*
  1512  001132  50F5               	movf	tablat,w,c
  1513  001134  6E46               	movwf	??_vfpfcnvrt^0,c
  1514  001136  6A47               	clrf	(??_vfpfcnvrt+1)^0,c
  1515                           
  1516                           ; Switch on 2 bytes has been partitioned into a top level switch of size 1, and 1 sub-sw
      +                          itches
  1517                           ; Switch size 1, requested type "simple"
  1518                           ; Number of cases is 1, Range of values is 0 to 0
  1519                           ; switch strategies available:
  1520                           ; Name         Instructions Cycles
  1521                           ; simple_byte            4     3 (average)
  1522                           ;	Chosen strategy is simple_byte
  1523  001138  5047               	movf	(??_vfpfcnvrt+1)^0,w,c
  1524  00113A  0A00               	xorlw	0	; case 0
  1525  00113C  B4D8               	btfsc	status,2,c
  1526  00113E  EFA3  F008         	goto	l3324
  1527  001142  EF8A  F008         	goto	l2500
  1528  001146                     l3324:
  1529                           
  1530                           ; Switch size 1, requested type "simple"
  1531                           ; Number of cases is 5, Range of values is 32 to 48
  1532                           ; switch strategies available:
  1533                           ; Name         Instructions Cycles
  1534                           ; simple_byte           16     9 (average)
  1535                           ;	Chosen strategy is simple_byte
  1536  001146  5046               	movf	??_vfpfcnvrt^0,w,c
  1537  001148  0A20               	xorlw	32	; case 32
  1538  00114A  B4D8               	btfsc	status,2,c
  1539  00114C  EF82  F008         	goto	l2492
  1540  001150  0A03               	xorlw	3	; case 35
  1541  001152  B4D8               	btfsc	status,2,c
  1542  001154  EF86  F008         	goto	l2496
  1543  001158  0A08               	xorlw	8	; case 43
  1544  00115A  B4D8               	btfsc	status,2,c
  1545  00115C  EF7E  F008         	goto	l2488
  1546  001160  0A06               	xorlw	6	; case 45
  1547  001162  B4D8               	btfsc	status,2,c
  1548  001164  EF6F  F008         	goto	l2480
  1549  001168  0A1D               	xorlw	29	; case 48
  1550  00116A  B4D8               	btfsc	status,2,c
  1551  00116C  EF7A  F008         	goto	l2484
  1552  001170  EF8A  F008         	goto	l2500
  1553  001174                     l2506:
  1554                           
  1555                           ;C:\Program Files\Microchip\xc8\v2.36\pic\sources\c99\common\doprnt.c: 711:         whil
      +                          e (!done) {
  1556  001174  5052               	movf	vfpfcnvrt@done^0,w,c
  1557  001176  1053               	iorwf	(vfpfcnvrt@done+1)^0,w,c
  1558  001178  B4D8               	btfsc	status,2,c
  1559  00117A  EFC1  F008         	goto	u2171
  1560  00117E  EFC3  F008         	goto	u2170
  1561  001182                     u2171:
  1562  001182  EF90  F008         	goto	l2504
  1563  001186                     u2170:
  1564  001186                     
  1565                           ;C:\Program Files\Microchip\xc8\v2.36\pic\sources\c99\common\doprnt.c: 738:         if (
      +                          flags & (1 << 0)) {
  1566  001186  0100               	movlb	0	; () banked
  1567  001188  A166               	btfss	_flags& (0+255),0,b
  1568  00118A  EFC9  F008         	goto	u2181
  1569  00118E  EFCB  F008         	goto	u2180
  1570  001192                     u2181:
  1571  001192  EFCC  F008         	goto	l2510
  1572  001196                     u2180:
  1573  001196                     
  1574                           ; BSR set to: 0
  1575                           ;C:\Program Files\Microchip\xc8\v2.36\pic\sources\c99\common\doprnt.c: 739:             
      +                          flags &= ~(1 << 1);
  1576  001196  9366               	bcf	_flags& (0+255),1,b
  1577  001198                     l2510:
  1578                           
  1579                           ; BSR set to: 0
  1580                           ;C:\Program Files\Microchip\xc8\v2.36\pic\sources\c99\common\doprnt.c: 745:         if (
      +                          (*fmt)[0] == '*') {
  1581  001198  C042  FFD9         	movff	vfpfcnvrt@fmt,fsr2l
  1582  00119C  C043  FFDA         	movff	vfpfcnvrt@fmt+1,fsr2h
  1583  0011A0  CFDE FFF6          	movff	postinc2,tblptrl
  1584  0011A4  CFDD FFF7          	movff	postdec2,tblptrh
  1585  0011A8                     	if	0	;tblptru may be non-zero
  1586  0011A8                     	endif
  1587  0011A8                     	if	0	;tblptru may be non-zero
  1588  0011A8                     	endif
  1589  0011A8  0008               	tblrd		*
  1590  0011AA  50F5               	movf	tablat,w,c
  1591  0011AC  0A2A               	xorlw	42
  1592  0011AE  A4D8               	btfss	status,2,c
  1593  0011B0  EFDC  F008         	goto	u2191
  1594  0011B4  EFDE  F008         	goto	u2190
  1595  0011B8                     u2191:
  1596  0011B8  EF07  F009         	goto	l2518
  1597  0011BC                     u2190:
  1598  0011BC                     
  1599                           ; BSR set to: 0
  1600                           ;C:\Program Files\Microchip\xc8\v2.36\pic\sources\c99\common\doprnt.c: 746:             
      +                          ++*fmt;
  1601  0011BC  C042  FFD9         	movff	vfpfcnvrt@fmt,fsr2l
  1602  0011C0  C043  FFDA         	movff	vfpfcnvrt@fmt+1,fsr2h
  1603  0011C4  2ADE               	incf	postinc2,f,c
  1604  0011C6  0E00               	movlw	0
  1605  0011C8  22DD               	addwfc	postdec2,f,c
  1606                           
  1607                           ;C:\Program Files\Microchip\xc8\v2.36\pic\sources\c99\common\doprnt.c: 747:             
      +                          width = (*(int *)__va_arg(*(int **)ap, (int)0));
  1608  0011CA  C044  FFD9         	movff	vfpfcnvrt@ap,fsr2l
  1609  0011CE  C045  FFDA         	movff	vfpfcnvrt@ap+1,fsr2h
  1610  0011D2  CFDF F046          	movff	indf2,??_vfpfcnvrt
  1611  0011D6  0E02               	movlw	2
  1612  0011D8  26DE               	addwf	postinc2,f,c
  1613  0011DA  CFDF F047          	movff	indf2,??_vfpfcnvrt+1
  1614  0011DE  0E00               	movlw	0
  1615  0011E0  22DD               	addwfc	postdec2,f,c
  1616  0011E2  C046  FFD9         	movff	??_vfpfcnvrt,fsr2l
  1617  0011E6  C047  FFDA         	movff	??_vfpfcnvrt+1,fsr2h
  1618  0011EA  CFDE F062          	movff	postinc2,_width
  1619  0011EE  CFDD F063          	movff	postdec2,_width+1
  1620  0011F2                     
  1621                           ; BSR set to: 0
  1622                           ;C:\Program Files\Microchip\xc8\v2.36\pic\sources\c99\common\doprnt.c: 748:             
      +                          if (width < 0) {
  1623  0011F2  BF63               	btfsc	(_width+1)& (0+255),7,b
  1624  0011F4  EF00  F009         	goto	u2200
  1625  0011F8  EFFE  F008         	goto	u2201
  1626  0011FC                     u2201:
  1627  0011FC  EF3D  F009         	goto	l2526
  1628  001200                     u2200:
  1629  001200                     
  1630                           ; BSR set to: 0
  1631                           ;C:\Program Files\Microchip\xc8\v2.36\pic\sources\c99\common\doprnt.c: 749:             
      +                              flags |= (1 << 0);
  1632  001200  8166               	bsf	_flags& (0+255),0,b
  1633                           
  1634                           ;C:\Program Files\Microchip\xc8\v2.36\pic\sources\c99\common\doprnt.c: 750:             
      +                              width = -width;
  1635  001202  6D62               	negf	_width& (0+255),b
  1636  001204  1F63               	comf	(_width+1)& (0+255),f,b
  1637  001206  B0D8               	btfsc	status,0,c
  1638  001208  2B63               	incf	(_width+1)& (0+255),f,b
  1639  00120A  EF3D  F009         	goto	l2526
  1640  00120E                     l2518:
  1641                           
  1642                           ; BSR set to: 0
  1643                           ;C:\Program Files\Microchip\xc8\v2.36\pic\sources\c99\common\doprnt.c: 753:             
      +                          width = atoi(*fmt);
  1644  00120E  C042  FFD9         	movff	vfpfcnvrt@fmt,fsr2l
  1645  001212  C043  FFDA         	movff	vfpfcnvrt@fmt+1,fsr2h
  1646  001216  CFDE F008          	movff	postinc2,atoi@s
  1647  00121A  CFDD F009          	movff	postdec2,atoi@s+1
  1648  00121E  ECB4  F00D         	call	_atoi	;wreg free
  1649  001222  C008  F062         	movff	?_atoi,_width
  1650  001226  C009  F063         	movff	?_atoi+1,_width+1
  1651                           
  1652                           ;C:\Program Files\Microchip\xc8\v2.36\pic\sources\c99\common\doprnt.c: 754:             
      +                          while ((0 && isdigit((*fmt)[0]), ((unsigned)((*fmt)[0])-'0') < 10)) {
  1653  00122A  EF1E  F009         	goto	l2524
  1654  00122E                     l2520:
  1655                           
  1656                           ;C:\Program Files\Microchip\xc8\v2.36\pic\sources\c99\common\doprnt.c: 755:             
      +                              ++*fmt;
  1657  00122E  C042  FFD9         	movff	vfpfcnvrt@fmt,fsr2l
  1658  001232  C043  FFDA         	movff	vfpfcnvrt@fmt+1,fsr2h
  1659  001236  2ADE               	incf	postinc2,f,c
  1660  001238  0E00               	movlw	0
  1661  00123A  22DD               	addwfc	postdec2,f,c
  1662  00123C                     l2524:
  1663  00123C  0ED0               	movlw	208
  1664  00123E  6E46               	movwf	??_vfpfcnvrt^0,c
  1665  001240  0EFF               	movlw	255
  1666  001242  6E47               	movwf	(??_vfpfcnvrt+1)^0,c
  1667  001244  C042  FFD9         	movff	vfpfcnvrt@fmt,fsr2l
  1668  001248  C043  FFDA         	movff	vfpfcnvrt@fmt+1,fsr2h
  1669  00124C  CFDE FFF6          	movff	postinc2,tblptrl
  1670  001250  CFDD FFF7          	movff	postdec2,tblptrh
  1671  001254                     	if	0	;tblptru may be non-zero
  1672  001254                     	endif
  1673  001254                     	if	0	;tblptru may be non-zero
  1674  001254                     	endif
  1675  001254  0008               	tblrd		*
  1676  001256  50F5               	movf	tablat,w,c
  1677  001258  6E48               	movwf	(??_vfpfcnvrt+2)^0,c
  1678  00125A  6A49               	clrf	(??_vfpfcnvrt+3)^0,c
  1679  00125C  5046               	movf	??_vfpfcnvrt^0,w,c
  1680  00125E  2648               	addwf	(??_vfpfcnvrt+2)^0,f,c
  1681  001260  5047               	movf	(??_vfpfcnvrt+1)^0,w,c
  1682  001262  2249               	addwfc	(??_vfpfcnvrt+3)^0,f,c
  1683  001264  5049               	movf	(??_vfpfcnvrt+3)^0,w,c
  1684  001266  E109               	bnz	u2210
  1685  001268  0E0A               	movlw	10
  1686  00126A  5C48               	subwf	(??_vfpfcnvrt+2)^0,w,c
  1687  00126C  A0D8               	btfss	status,0,c
  1688  00126E  EF3B  F009         	goto	u2211
  1689  001272  EF3D  F009         	goto	u2210
  1690  001276                     u2211:
  1691  001276  EF17  F009         	goto	l2520
  1692  00127A                     u2210:
  1693  00127A                     l2526:
  1694                           
  1695                           ;C:\Program Files\Microchip\xc8\v2.36\pic\sources\c99\common\doprnt.c: 847:         if (
      +                          (*fmt[0] == 'd') || (*fmt[0] == 'i')) {
  1696  00127A  C042  FFD9         	movff	vfpfcnvrt@fmt,fsr2l
  1697  00127E  C043  FFDA         	movff	vfpfcnvrt@fmt+1,fsr2h
  1698  001282  CFDE FFF6          	movff	postinc2,tblptrl
  1699  001286  CFDD FFF7          	movff	postdec2,tblptrh
  1700  00128A                     	if	0	;tblptru may be non-zero
  1701  00128A                     	endif
  1702  00128A                     	if	0	;tblptru may be non-zero
  1703  00128A                     	endif
  1704  00128A  0008               	tblrd		*
  1705  00128C  50F5               	movf	tablat,w,c
  1706  00128E  0A64               	xorlw	100
  1707  001290  B4D8               	btfsc	status,2,c
  1708  001292  EF4D  F009         	goto	u2221
  1709  001296  EF4F  F009         	goto	u2220
  1710  00129A                     u2221:
  1711  00129A  EF61  F009         	goto	l2530
  1712  00129E                     u2220:
  1713  00129E  C042  FFD9         	movff	vfpfcnvrt@fmt,fsr2l
  1714  0012A2  C043  FFDA         	movff	vfpfcnvrt@fmt+1,fsr2h
  1715  0012A6  CFDE FFF6          	movff	postinc2,tblptrl
  1716  0012AA  CFDD FFF7          	movff	postdec2,tblptrh
  1717  0012AE                     	if	0	;tblptru may be non-zero
  1718  0012AE                     	endif
  1719  0012AE                     	if	0	;tblptru may be non-zero
  1720  0012AE                     	endif
  1721  0012AE  0008               	tblrd		*
  1722  0012B0  50F5               	movf	tablat,w,c
  1723  0012B2  0A69               	xorlw	105
  1724  0012B4  A4D8               	btfss	status,2,c
  1725  0012B6  EF5F  F009         	goto	u2231
  1726  0012BA  EF61  F009         	goto	u2230
  1727  0012BE                     u2231:
  1728  0012BE  EFA1  F009         	goto	l2536
  1729  0012C2                     u2230:
  1730  0012C2                     l2530:
  1731                           
  1732                           ;C:\Program Files\Microchip\xc8\v2.36\pic\sources\c99\common\doprnt.c: 849:             
      +                          ++*fmt;
  1733  0012C2  C042  FFD9         	movff	vfpfcnvrt@fmt,fsr2l
  1734  0012C6  C043  FFDA         	movff	vfpfcnvrt@fmt+1,fsr2h
  1735  0012CA  2ADE               	incf	postinc2,f,c
  1736  0012CC  0E00               	movlw	0
  1737  0012CE  22DD               	addwfc	postdec2,f,c
  1738                           
  1739                           ;C:\Program Files\Microchip\xc8\v2.36\pic\sources\c99\common\doprnt.c: 850:             
      +                          ll = (long long)(*(int *)__va_arg(*(int **)ap, (int)0));
  1740  0012D0  C044  FFD9         	movff	vfpfcnvrt@ap,fsr2l
  1741  0012D4  C045  FFDA         	movff	vfpfcnvrt@ap+1,fsr2h
  1742  0012D8  CFDF F046          	movff	indf2,??_vfpfcnvrt
  1743  0012DC  0E02               	movlw	2
  1744  0012DE  26DE               	addwf	postinc2,f,c
  1745  0012E0  CFDF F047          	movff	indf2,??_vfpfcnvrt+1
  1746  0012E4  0E00               	movlw	0
  1747  0012E6  22DD               	addwfc	postdec2,f,c
  1748  0012E8  C046  FFD9         	movff	??_vfpfcnvrt,fsr2l
  1749  0012EC  C047  FFDA         	movff	??_vfpfcnvrt+1,fsr2h
  1750  0012F0  CFDE F04A          	movff	postinc2,vfpfcnvrt@ll
  1751  0012F4  CFDD F04B          	movff	postdec2,vfpfcnvrt@ll+1
  1752  0012F8  0E00               	movlw	0
  1753  0012FA  BE4B               	btfsc	(vfpfcnvrt@ll+1)^0,7,c
  1754  0012FC  0EFF               	movlw	-1
  1755  0012FE  6E4C               	movwf	(vfpfcnvrt@ll+2)^0,c
  1756  001300  6E4D               	movwf	(vfpfcnvrt@ll+3)^0,c
  1757  001302  6E4E               	movwf	(vfpfcnvrt@ll+4)^0,c
  1758  001304  6E4F               	movwf	(vfpfcnvrt@ll+5)^0,c
  1759  001306  6E50               	movwf	(vfpfcnvrt@ll+6)^0,c
  1760  001308  6E51               	movwf	(vfpfcnvrt@ll+7)^0,c
  1761  00130A                     
  1762                           ;C:\Program Files\Microchip\xc8\v2.36\pic\sources\c99\common\doprnt.c: 852:             
      +                          return dtoa(fp, ll);
  1763  00130A  C040  F01C         	movff	vfpfcnvrt@fp,dtoa@fp
  1764  00130E  C041  F01D         	movff	vfpfcnvrt@fp+1,dtoa@fp+1
  1765  001312  C04A  F01E         	movff	vfpfcnvrt@ll,dtoa@d
  1766  001316  C04B  F01F         	movff	vfpfcnvrt@ll+1,dtoa@d+1
  1767  00131A  C04C  F020         	movff	vfpfcnvrt@ll+2,dtoa@d+2
  1768  00131E  C04D  F021         	movff	vfpfcnvrt@ll+3,dtoa@d+3
  1769  001322  C04E  F022         	movff	vfpfcnvrt@ll+4,dtoa@d+4
  1770  001326  C04F  F023         	movff	vfpfcnvrt@ll+5,dtoa@d+5
  1771  00132A  C050  F024         	movff	vfpfcnvrt@ll+6,dtoa@d+6
  1772  00132E  C051  F025         	movff	vfpfcnvrt@ll+7,dtoa@d+7
  1773  001332  ECF3  F009         	call	_dtoa	;wreg free
  1774  001336  C01C  F040         	movff	?_dtoa,?_vfpfcnvrt
  1775  00133A  C01D  F041         	movff	?_dtoa+1,?_vfpfcnvrt+1
  1776  00133E  EFF2  F009         	goto	l982
  1777  001342                     l2536:
  1778                           
  1779                           ;C:\Program Files\Microchip\xc8\v2.36\pic\sources\c99\common\doprnt.c: 1372:         if 
      +                          ((*fmt)[0] == '%') {
  1780  001342  C042  FFD9         	movff	vfpfcnvrt@fmt,fsr2l
  1781  001346  C043  FFDA         	movff	vfpfcnvrt@fmt+1,fsr2h
  1782  00134A  CFDE FFF6          	movff	postinc2,tblptrl
  1783  00134E  CFDD FFF7          	movff	postdec2,tblptrh
  1784  001352                     	if	0	;tblptru may be non-zero
  1785  001352                     	endif
  1786  001352                     	if	0	;tblptru may be non-zero
  1787  001352                     	endif
  1788  001352  0008               	tblrd		*
  1789  001354  50F5               	movf	tablat,w,c
  1790  001356  0A25               	xorlw	37
  1791  001358  A4D8               	btfss	status,2,c
  1792  00135A  EFB1  F009         	goto	u2241
  1793  00135E  EFB3  F009         	goto	u2240
  1794  001362                     u2241:
  1795  001362  EFCA  F009         	goto	l2546
  1796  001366                     u2240:
  1797  001366                     
  1798                           ;C:\Program Files\Microchip\xc8\v2.36\pic\sources\c99\common\doprnt.c: 1373:            
      +                           ++*fmt;
  1799  001366  C042  FFD9         	movff	vfpfcnvrt@fmt,fsr2l
  1800  00136A  C043  FFDA         	movff	vfpfcnvrt@fmt+1,fsr2h
  1801  00136E  2ADE               	incf	postinc2,f,c
  1802  001370  0E00               	movlw	0
  1803  001372  22DD               	addwfc	postdec2,f,c
  1804  001374                     
  1805                           ;C:\Program Files\Microchip\xc8\v2.36\pic\sources\c99\common\doprnt.c: 1374:            
      +                           fputc((int)'%', fp);
  1806  001374  0E00               	movlw	0
  1807  001376  6E02               	movwf	(fputc@c+1)^0,c
  1808  001378  0E25               	movlw	37
  1809  00137A  6E01               	movwf	fputc@c^0,c
  1810  00137C  C040  F003         	movff	vfpfcnvrt@fp,fputc@fp
  1811  001380  C041  F004         	movff	vfpfcnvrt@fp+1,fputc@fp+1
  1812  001384  ECE2  F00E         	call	_fputc	;wreg free
  1813  001388                     l2542:
  1814                           
  1815                           ;C:\Program Files\Microchip\xc8\v2.36\pic\sources\c99\common\doprnt.c: 1375:            
      +                           return 1;
  1816  001388  0E00               	movlw	0
  1817  00138A  6E41               	movwf	(?_vfpfcnvrt+1)^0,c
  1818  00138C  0E01               	movlw	1
  1819  00138E  6E40               	movwf	?_vfpfcnvrt^0,c
  1820  001390  EFF2  F009         	goto	l982
  1821  001394                     l2546:
  1822                           
  1823                           ;C:\Program Files\Microchip\xc8\v2.36\pic\sources\c99\common\doprnt.c: 1379:         ++*
      +                          fmt;
  1824  001394  C042  FFD9         	movff	vfpfcnvrt@fmt,fsr2l
  1825  001398  C043  FFDA         	movff	vfpfcnvrt@fmt+1,fsr2h
  1826  00139C  2ADE               	incf	postinc2,f,c
  1827  00139E  0E00               	movlw	0
  1828  0013A0  22DD               	addwfc	postdec2,f,c
  1829  0013A2                     
  1830                           ;C:\Program Files\Microchip\xc8\v2.36\pic\sources\c99\common\doprnt.c: 1380:         ret
      +                          urn 0;
  1831  0013A2  0E00               	movlw	0
  1832  0013A4  6E41               	movwf	(?_vfpfcnvrt+1)^0,c
  1833  0013A6  0E00               	movlw	0
  1834  0013A8  6E40               	movwf	?_vfpfcnvrt^0,c
  1835  0013AA  EFF2  F009         	goto	l982
  1836  0013AE                     l2552:
  1837                           
  1838                           ;C:\Program Files\Microchip\xc8\v2.36\pic\sources\c99\common\doprnt.c: 1384:     fputc((
      +                          int)(*fmt)[0], fp);
  1839  0013AE  C042  FFD9         	movff	vfpfcnvrt@fmt,fsr2l
  1840  0013B2  C043  FFDA         	movff	vfpfcnvrt@fmt+1,fsr2h
  1841  0013B6  CFDE FFF6          	movff	postinc2,tblptrl
  1842  0013BA  CFDD FFF7          	movff	postdec2,tblptrh
  1843  0013BE                     	if	0	;tblptru may be non-zero
  1844  0013BE                     	endif
  1845  0013BE                     	if	0	;tblptru may be non-zero
  1846  0013BE                     	endif
  1847  0013BE  0008               	tblrd		*
  1848  0013C0  50F5               	movf	tablat,w,c
  1849  0013C2  6E01               	movwf	fputc@c^0,c
  1850  0013C4  6A02               	clrf	(fputc@c+1)^0,c
  1851  0013C6  C040  F003         	movff	vfpfcnvrt@fp,fputc@fp
  1852  0013CA  C041  F004         	movff	vfpfcnvrt@fp+1,fputc@fp+1
  1853  0013CE  ECE2  F00E         	call	_fputc	;wreg free
  1854  0013D2                     
  1855                           ;C:\Program Files\Microchip\xc8\v2.36\pic\sources\c99\common\doprnt.c: 1385:     ++*fmt;
  1856  0013D2  C042  FFD9         	movff	vfpfcnvrt@fmt,fsr2l
  1857  0013D6  C043  FFDA         	movff	vfpfcnvrt@fmt+1,fsr2h
  1858  0013DA  2ADE               	incf	postinc2,f,c
  1859  0013DC  0E00               	movlw	0
  1860  0013DE  22DD               	addwfc	postdec2,f,c
  1861  0013E0  EFC4  F009         	goto	l2542
  1862  0013E4                     l982:
  1863  0013E4  0012               	return		;funcret
  1864  0013E6                     __end_of_vfpfcnvrt:
  1865                           	callstack 0
  1866                           
  1867 ;; *************** function _dtoa *****************
  1868 ;; Defined at:
  1869 ;;		line 287 in file "C:\Program Files\Microchip\xc8\v2.36\pic\sources\c99\common\doprnt.c"
  1870 ;; Parameters:    Size  Location     Type
  1871 ;;  fp              2   27[COMRAM] PTR struct _IO_FILE
  1872 ;;		 -> sprintf@f(11), 
  1873 ;;  d               8   29[COMRAM] long long 
  1874 ;; Auto vars:     Size  Location     Type
  1875 ;;  n               8   53[COMRAM] long long 
  1876 ;;  i               2   61[COMRAM] int 
  1877 ;;  s               2   51[COMRAM] int 
  1878 ;;  w               2   49[COMRAM] int 
  1879 ;;  p               2   47[COMRAM] int 
  1880 ;; Return value:  Size  Location     Type
  1881 ;;                  2   27[COMRAM] int 
  1882 ;; Registers used:
  1883 ;;		wreg, fsr1l, fsr1h, fsr2l, fsr2h, status,2, status,0, cstack
  1884 ;; Tracked objects:
  1885 ;;		On entry : 0/0
  1886 ;;		On exit  : 0/0
  1887 ;;		Unchanged: 0/0
  1888 ;; Data sizes:     COMRAM   BANK0   BANK1   BANK2   BANK3   BANK4   BANK5   BANK6   BANK7
  1889 ;;      Params:        10       0       0       0       0       0       0       0       0
  1890 ;;      Locals:        18       0       0       0       0       0       0       0       0
  1891 ;;      Temps:          8       0       0       0       0       0       0       0       0
  1892 ;;      Totals:        36       0       0       0       0       0       0       0       0
  1893 ;;Total ram usage:       36 bytes
  1894 ;; Hardware stack levels used: 1
  1895 ;; Hardware stack levels required when called: 4
  1896 ;; This function calls:
  1897 ;;		___aodiv
  1898 ;;		___aomod
  1899 ;;		_abs
  1900 ;;		_pad
  1901 ;; This function is called by:
  1902 ;;		_vfpfcnvrt
  1903 ;; This function uses a non-reentrant model
  1904 ;;
  1905                           
  1906                           	psect	text7
  1907  0013E6                     __ptext7:
  1908                           	callstack 0
  1909  0013E6                     _dtoa:
  1910                           	callstack 21
  1911  0013E6                     
  1912                           ;C:\Program Files\Microchip\xc8\v2.36\pic\sources\c99\common\doprnt.c: 287: static int d
      +                          toa(FILE *fp, long long d);C:\Program Files\Microchip\xc8\v2.36\pic\sources\c99\common\d
      +                          oprnt.c: 288: {;C:\Program Files\Microchip\xc8\v2.36\pic\sources\c99\common\doprnt.c: 28
      +                          9:     int i, p, s, w;;C:\Program Files\Microchip\xc8\v2.36\pic\sources\c99\common\doprn
      +                          t.c: 290:     long long n;;C:\Program Files\Microchip\xc8\v2.36\pic\sources\c99\common\d
      +                          oprnt.c: 293:     n = d;
  1913  0013E6  C01E  F036         	movff	dtoa@d,dtoa@n
  1914  0013EA  C01F  F037         	movff	dtoa@d+1,dtoa@n+1
  1915  0013EE  C020  F038         	movff	dtoa@d+2,dtoa@n+2
  1916  0013F2  C021  F039         	movff	dtoa@d+3,dtoa@n+3
  1917  0013F6  C022  F03A         	movff	dtoa@d+4,dtoa@n+4
  1918  0013FA  C023  F03B         	movff	dtoa@d+5,dtoa@n+5
  1919  0013FE  C024  F03C         	movff	dtoa@d+6,dtoa@n+6
  1920  001402  C025  F03D         	movff	dtoa@d+7,dtoa@n+7
  1921  001406                     
  1922                           ;C:\Program Files\Microchip\xc8\v2.36\pic\sources\c99\common\doprnt.c: 294:     s = n < 
      +                          0 ? 1 : 0;
  1923  001406  BE3D               	btfsc	(dtoa@n+7)^0,7,c
  1924  001408  EF08  F00A         	goto	u1931
  1925  00140C  EF0B  F00A         	goto	u1930
  1926  001410                     u1931:
  1927  001410  0E01               	movlw	1
  1928  001412  EF0C  F00A         	goto	u1940
  1929  001416                     u1930:
  1930  001416  0E00               	movlw	0
  1931  001418                     u1940:
  1932  001418  6E34               	movwf	dtoa@s^0,c
  1933  00141A  6A35               	clrf	(dtoa@s+1)^0,c
  1934                           
  1935                           ;C:\Program Files\Microchip\xc8\v2.36\pic\sources\c99\common\doprnt.c: 295:     if (s) {
  1936  00141C  5034               	movf	dtoa@s^0,w,c
  1937  00141E  1035               	iorwf	(dtoa@s+1)^0,w,c
  1938  001420  B4D8               	btfsc	status,2,c
  1939  001422  EF15  F00A         	goto	u1951
  1940  001426  EF17  F00A         	goto	u1950
  1941  00142A                     u1951:
  1942  00142A  EF27  F00A         	goto	l2366
  1943  00142E                     u1950:
  1944  00142E                     
  1945                           ;C:\Program Files\Microchip\xc8\v2.36\pic\sources\c99\common\doprnt.c: 296:         n = 
      +                          -n;
  1946  00142E  1E3D               	comf	(dtoa@n+7)^0,f,c
  1947  001430  1E3C               	comf	(dtoa@n+6)^0,f,c
  1948  001432  1E3B               	comf	(dtoa@n+5)^0,f,c
  1949  001434  1E3A               	comf	(dtoa@n+4)^0,f,c
  1950  001436  1E39               	comf	(dtoa@n+3)^0,f,c
  1951  001438  1E38               	comf	(dtoa@n+2)^0,f,c
  1952  00143A  1E37               	comf	(dtoa@n+1)^0,f,c
  1953  00143C  6C36               	negf	dtoa@n^0,c
  1954  00143E  0E00               	movlw	0
  1955  001440  2237               	addwfc	(dtoa@n+1)^0,f,c
  1956  001442  2238               	addwfc	(dtoa@n+2)^0,f,c
  1957  001444  2239               	addwfc	(dtoa@n+3)^0,f,c
  1958  001446  223A               	addwfc	(dtoa@n+4)^0,f,c
  1959  001448  223B               	addwfc	(dtoa@n+5)^0,f,c
  1960  00144A  223C               	addwfc	(dtoa@n+6)^0,f,c
  1961  00144C  223D               	addwfc	(dtoa@n+7)^0,f,c
  1962  00144E                     l2366:
  1963                           
  1964                           ;C:\Program Files\Microchip\xc8\v2.36\pic\sources\c99\common\doprnt.c: 300:     if (!(pr
      +                          ec < 0)) {
  1965  00144E  0100               	movlb	0	; () banked
  1966  001450  BF65               	btfsc	(_prec+1)& (0+255),7,b
  1967  001452  EF2D  F00A         	goto	u1961
  1968  001456  EF2F  F00A         	goto	u1960
  1969  00145A                     u1961:
  1970  00145A  EF30  F00A         	goto	l2370
  1971  00145E                     u1960:
  1972  00145E                     
  1973                           ; BSR set to: 0
  1974                           ;C:\Program Files\Microchip\xc8\v2.36\pic\sources\c99\common\doprnt.c: 301:         flag
      +                          s &= ~(1 << 1);
  1975  00145E  9366               	bcf	_flags& (0+255),1,b
  1976  001460                     l2370:
  1977                           
  1978                           ; BSR set to: 0
  1979                           ;C:\Program Files\Microchip\xc8\v2.36\pic\sources\c99\common\doprnt.c: 303:     p = (0 <
      +                           prec) ? prec : 1;
  1980  001460  BF65               	btfsc	(_prec+1)& (0+255),7,b
  1981  001462  EF3D  F00A         	goto	u1970
  1982  001466  5165               	movf	(_prec+1)& (0+255),w,b
  1983  001468  E106               	bnz	u1971
  1984  00146A  0564               	decf	_prec& (0+255),w,b
  1985  00146C  B0D8               	btfsc	status,0,c
  1986  00146E  EF3B  F00A         	goto	u1971
  1987  001472  EF3D  F00A         	goto	u1970
  1988  001476                     u1971:
  1989  001476  EF43  F00A         	goto	l935
  1990  00147A                     u1970:
  1991  00147A                     
  1992                           ; BSR set to: 0
  1993  00147A  0E00               	movlw	0
  1994  00147C  6E31               	movwf	(dtoa@p+1)^0,c
  1995  00147E  0E01               	movlw	1
  1996  001480  6E30               	movwf	dtoa@p^0,c
  1997  001482  EF47  F00A         	goto	l937
  1998  001486                     l935:
  1999                           
  2000                           ; BSR set to: 0
  2001  001486  C064  F030         	movff	_prec,dtoa@p
  2002  00148A  C065  F031         	movff	_prec+1,dtoa@p+1
  2003  00148E                     l937:
  2004                           
  2005                           ; BSR set to: 0
  2006                           ;C:\Program Files\Microchip\xc8\v2.36\pic\sources\c99\common\doprnt.c: 304:     w = widt
      +                          h;
  2007  00148E  C062  F032         	movff	_width,dtoa@w
  2008  001492  C063  F033         	movff	_width+1,dtoa@w+1
  2009  001496                     
  2010                           ; BSR set to: 0
  2011                           ;C:\Program Files\Microchip\xc8\v2.36\pic\sources\c99\common\doprnt.c: 305:     if (s ||
      +                           (flags & (1 << 2))) {
  2012  001496  5034               	movf	dtoa@s^0,w,c
  2013  001498  1035               	iorwf	(dtoa@s+1)^0,w,c
  2014  00149A  A4D8               	btfss	status,2,c
  2015  00149C  EF52  F00A         	goto	u1981
  2016  0014A0  EF54  F00A         	goto	u1980
  2017  0014A4                     u1981:
  2018  0014A4  EF5B  F00A         	goto	l2378
  2019  0014A8                     u1980:
  2020  0014A8                     
  2021                           ; BSR set to: 0
  2022  0014A8  A566               	btfss	_flags& (0+255),2,b
  2023  0014AA  EF59  F00A         	goto	u1991
  2024  0014AE  EF5B  F00A         	goto	u1990
  2025  0014B2                     u1991:
  2026  0014B2  EF5E  F00A         	goto	l2380
  2027  0014B6                     u1990:
  2028  0014B6                     l2378:
  2029                           
  2030                           ; BSR set to: 0
  2031                           ;C:\Program Files\Microchip\xc8\v2.36\pic\sources\c99\common\doprnt.c: 306:         --w;
  2032  0014B6  0632               	decf	dtoa@w^0,f,c
  2033  0014B8  A0D8               	btfss	status,0,c
  2034  0014BA  0633               	decf	(dtoa@w+1)^0,f,c
  2035  0014BC                     l2380:
  2036                           
  2037                           ; BSR set to: 0
  2038                           ;C:\Program Files\Microchip\xc8\v2.36\pic\sources\c99\common\doprnt.c: 310:     i = size
      +                          of(dbuf) - 1;
  2039  0014BC  0E00               	movlw	0
  2040  0014BE  6E3F               	movwf	(dtoa@i+1)^0,c
  2041  0014C0  0E1F               	movlw	31
  2042  0014C2  6E3E               	movwf	dtoa@i^0,c
  2043  0014C4                     
  2044                           ; BSR set to: 0
  2045                           ;C:\Program Files\Microchip\xc8\v2.36\pic\sources\c99\common\doprnt.c: 311:     dbuf[i] 
      +                          = '\0';
  2046  0014C4  0E00               	movlw	0
  2047  0014C6  6F87               	movwf	(_dbuf+31)& (0+255),b
  2048                           
  2049                           ;C:\Program Files\Microchip\xc8\v2.36\pic\sources\c99\common\doprnt.c: 312:     while (!
      +                          (i < 1) && (n || (0 < p) || ((0 < w) && (flags & (1 << 1))))) {
  2050  0014C8  EFE2  F00A         	goto	l2394
  2051  0014CC                     l2384:
  2052                           
  2053                           ;C:\Program Files\Microchip\xc8\v2.36\pic\sources\c99\common\doprnt.c: 313:         --i;
  2054  0014CC  063E               	decf	dtoa@i^0,f,c
  2055  0014CE  A0D8               	btfss	status,0,c
  2056  0014D0  063F               	decf	(dtoa@i+1)^0,f,c
  2057  0014D2                     
  2058                           ;C:\Program Files\Microchip\xc8\v2.36\pic\sources\c99\common\doprnt.c: 314:         dbuf
      +                          [i] = (char)((int)'0' + abs(n % 10));
  2059  0014D2  0E68               	movlw	low _dbuf
  2060  0014D4  243E               	addwf	dtoa@i^0,w,c
  2061  0014D6  6ED9               	movwf	fsr2l,c
  2062  0014D8  0E00               	movlw	high _dbuf
  2063  0014DA  203F               	addwfc	(dtoa@i+1)^0,w,c
  2064  0014DC  6EDA               	movwf	fsr2h,c
  2065  0014DE  C036  F001         	movff	dtoa@n,___aomod@dividend
  2066  0014E2  C037  F002         	movff	dtoa@n+1,___aomod@dividend+1
  2067  0014E6  C038  F003         	movff	dtoa@n+2,___aomod@dividend+2
  2068  0014EA  C039  F004         	movff	dtoa@n+3,___aomod@dividend+3
  2069  0014EE  C03A  F005         	movff	dtoa@n+4,___aomod@dividend+4
  2070  0014F2  C03B  F006         	movff	dtoa@n+5,___aomod@dividend+5
  2071  0014F6  C03C  F007         	movff	dtoa@n+6,___aomod@dividend+6
  2072  0014FA  C03D  F008         	movff	dtoa@n+7,___aomod@dividend+7
  2073  0014FE  0E0A               	movlw	10
  2074  001500  6E09               	movwf	___aomod@divisor^0,c
  2075  001502  0E00               	movlw	0
  2076  001504  6E0A               	movwf	(___aomod@divisor+1)^0,c
  2077  001506  0E00               	movlw	0
  2078  001508  6E0B               	movwf	(___aomod@divisor+2)^0,c
  2079  00150A  0E00               	movlw	0
  2080  00150C  6E0C               	movwf	(___aomod@divisor+3)^0,c
  2081  00150E  0E00               	movlw	0
  2082  001510  6E0D               	movwf	(___aomod@divisor+4)^0,c
  2083  001512  0E00               	movlw	0
  2084  001514  6E0E               	movwf	(___aomod@divisor+5)^0,c
  2085  001516  0E00               	movlw	0
  2086  001518  6E0F               	movwf	(___aomod@divisor+6)^0,c
  2087  00151A  0E00               	movlw	0
  2088  00151C  6E10               	movwf	(___aomod@divisor+7)^0,c
  2089  00151E  EC02  F00D         	call	___aomod	;wreg free
  2090  001522  C001  F026         	movff	?___aomod,??_dtoa
  2091  001526  C002  F027         	movff	?___aomod+1,??_dtoa+1
  2092  00152A  C003  F028         	movff	?___aomod+2,??_dtoa+2
  2093  00152E  C004  F029         	movff	?___aomod+3,??_dtoa+3
  2094  001532  C005  F02A         	movff	?___aomod+4,??_dtoa+4
  2095  001536  C006  F02B         	movff	?___aomod+5,??_dtoa+5
  2096  00153A  C007  F02C         	movff	?___aomod+6,??_dtoa+6
  2097  00153E  C008  F02D         	movff	?___aomod+7,??_dtoa+7
  2098  001542  C026  F013         	movff	??_dtoa,abs@a
  2099  001546  C028  F014         	movff	??_dtoa+2,abs@a+1
  2100  00154A  EC11  F013         	call	_abs	;wreg free
  2101  00154E  5013               	movf	?_abs^0,w,c
  2102  001550  0F30               	addlw	48
  2103  001552  6EDF               	movwf	indf2,c
  2104  001554                     
  2105                           ;C:\Program Files\Microchip\xc8\v2.36\pic\sources\c99\common\doprnt.c: 315:         --p;
  2106  001554  0630               	decf	dtoa@p^0,f,c
  2107  001556  A0D8               	btfss	status,0,c
  2108  001558  0631               	decf	(dtoa@p+1)^0,f,c
  2109  00155A                     
  2110                           ;C:\Program Files\Microchip\xc8\v2.36\pic\sources\c99\common\doprnt.c: 316:         --w;
  2111  00155A  0632               	decf	dtoa@w^0,f,c
  2112  00155C  A0D8               	btfss	status,0,c
  2113  00155E  0633               	decf	(dtoa@w+1)^0,f,c
  2114  001560                     
  2115                           ;C:\Program Files\Microchip\xc8\v2.36\pic\sources\c99\common\doprnt.c: 317:         n = 
      +                          n / 10;
  2116  001560  C036  F001         	movff	dtoa@n,___aodiv@dividend
  2117  001564  C037  F002         	movff	dtoa@n+1,___aodiv@dividend+1
  2118  001568  C038  F003         	movff	dtoa@n+2,___aodiv@dividend+2
  2119  00156C  C039  F004         	movff	dtoa@n+3,___aodiv@dividend+3
  2120  001570  C03A  F005         	movff	dtoa@n+4,___aodiv@dividend+4
  2121  001574  C03B  F006         	movff	dtoa@n+5,___aodiv@dividend+5
  2122  001578  C03C  F007         	movff	dtoa@n+6,___aodiv@dividend+6
  2123  00157C  C03D  F008         	movff	dtoa@n+7,___aodiv@dividend+7
  2124  001580  0E0A               	movlw	10
  2125  001582  6E09               	movwf	___aodiv@divisor^0,c
  2126  001584  0E00               	movlw	0
  2127  001586  6E0A               	movwf	(___aodiv@divisor+1)^0,c
  2128  001588  0E00               	movlw	0
  2129  00158A  6E0B               	movwf	(___aodiv@divisor+2)^0,c
  2130  00158C  0E00               	movlw	0
  2131  00158E  6E0C               	movwf	(___aodiv@divisor+3)^0,c
  2132  001590  0E00               	movlw	0
  2133  001592  6E0D               	movwf	(___aodiv@divisor+4)^0,c
  2134  001594  0E00               	movlw	0
  2135  001596  6E0E               	movwf	(___aodiv@divisor+5)^0,c
  2136  001598  0E00               	movlw	0
  2137  00159A  6E0F               	movwf	(___aodiv@divisor+6)^0,c
  2138  00159C  0E00               	movlw	0
  2139  00159E  6E10               	movwf	(___aodiv@divisor+7)^0,c
  2140  0015A0  EC3E  F00C         	call	___aodiv	;wreg free
  2141  0015A4  C001  F036         	movff	?___aodiv,dtoa@n
  2142  0015A8  C002  F037         	movff	?___aodiv+1,dtoa@n+1
  2143  0015AC  C003  F038         	movff	?___aodiv+2,dtoa@n+2
  2144  0015B0  C004  F039         	movff	?___aodiv+3,dtoa@n+3
  2145  0015B4  C005  F03A         	movff	?___aodiv+4,dtoa@n+4
  2146  0015B8  C006  F03B         	movff	?___aodiv+5,dtoa@n+5
  2147  0015BC  C007  F03C         	movff	?___aodiv+6,dtoa@n+6
  2148  0015C0  C008  F03D         	movff	?___aodiv+7,dtoa@n+7
  2149  0015C4                     l2394:
  2150                           
  2151                           ;C:\Program Files\Microchip\xc8\v2.36\pic\sources\c99\common\doprnt.c: 312:     while (!
      +                          (i < 1) && (n || (0 < p) || ((0 < w) && (flags & (1 << 1))))) {
  2152  0015C4  BE3F               	btfsc	(dtoa@i+1)^0,7,c
  2153  0015C6  EFED  F00A         	goto	u2001
  2154  0015CA  503F               	movf	(dtoa@i+1)^0,w,c
  2155  0015CC  E108               	bnz	u2000
  2156  0015CE  043E               	decf	dtoa@i^0,w,c
  2157  0015D0  A0D8               	btfss	status,0,c
  2158  0015D2  EFED  F00A         	goto	u2001
  2159  0015D6  EFEF  F00A         	goto	u2000
  2160  0015DA                     u2001:
  2161  0015DA  EF20  F00B         	goto	l2404
  2162  0015DE                     u2000:
  2163  0015DE  5036               	movf	dtoa@n^0,w,c
  2164  0015E0  1037               	iorwf	(dtoa@n+1)^0,w,c
  2165  0015E2  1038               	iorwf	(dtoa@n+2)^0,w,c
  2166  0015E4  1039               	iorwf	(dtoa@n+3)^0,w,c
  2167  0015E6  103A               	iorwf	(dtoa@n+4)^0,w,c
  2168  0015E8  103B               	iorwf	(dtoa@n+5)^0,w,c
  2169  0015EA  103C               	iorwf	(dtoa@n+6)^0,w,c
  2170  0015EC  103D               	iorwf	(dtoa@n+7)^0,w,c
  2171  0015EE  A4D8               	btfss	status,2,c
  2172  0015F0  EFFC  F00A         	goto	u2011
  2173  0015F4  EFFE  F00A         	goto	u2010
  2174  0015F8                     u2011:
  2175  0015F8  EF66  F00A         	goto	l2384
  2176  0015FC                     u2010:
  2177  0015FC  BE31               	btfsc	(dtoa@p+1)^0,7,c
  2178  0015FE  EF0B  F00B         	goto	u2020
  2179  001602  5031               	movf	(dtoa@p+1)^0,w,c
  2180  001604  E106               	bnz	u2021
  2181  001606  0430               	decf	dtoa@p^0,w,c
  2182  001608  B0D8               	btfsc	status,0,c
  2183  00160A  EF09  F00B         	goto	u2021
  2184  00160E  EF0B  F00B         	goto	u2020
  2185  001612                     u2021:
  2186  001612  EF66  F00A         	goto	l2384
  2187  001616                     u2020:
  2188  001616  BE33               	btfsc	(dtoa@w+1)^0,7,c
  2189  001618  EF16  F00B         	goto	u2031
  2190  00161C  5033               	movf	(dtoa@w+1)^0,w,c
  2191  00161E  E108               	bnz	u2030
  2192  001620  0432               	decf	dtoa@w^0,w,c
  2193  001622  A0D8               	btfss	status,0,c
  2194  001624  EF16  F00B         	goto	u2031
  2195  001628  EF18  F00B         	goto	u2030
  2196  00162C                     u2031:
  2197  00162C  EF20  F00B         	goto	l2404
  2198  001630                     u2030:
  2199  001630  0100               	movlb	0	; () banked
  2200  001632  B366               	btfsc	_flags& (0+255),1,b
  2201  001634  EF1E  F00B         	goto	u2041
  2202  001638  EF20  F00B         	goto	u2040
  2203  00163C                     u2041:
  2204  00163C  EF66  F00A         	goto	l2384
  2205  001640                     u2040:
  2206  001640                     l2404:
  2207                           
  2208                           ;C:\Program Files\Microchip\xc8\v2.36\pic\sources\c99\common\doprnt.c: 321:     if (s ||
      +                           (flags & (1 << 2))) {
  2209  001640  5034               	movf	dtoa@s^0,w,c
  2210  001642  1035               	iorwf	(dtoa@s+1)^0,w,c
  2211  001644  A4D8               	btfss	status,2,c
  2212  001646  EF27  F00B         	goto	u2051
  2213  00164A  EF29  F00B         	goto	u2050
  2214  00164E                     u2051:
  2215  00164E  EF31  F00B         	goto	l2408
  2216  001652                     u2050:
  2217  001652  0100               	movlb	0	; () banked
  2218  001654  A566               	btfss	_flags& (0+255),2,b
  2219  001656  EF2F  F00B         	goto	u2061
  2220  00165A  EF31  F00B         	goto	u2060
  2221  00165E                     u2061:
  2222  00165E  EF4F  F00B         	goto	l2418
  2223  001662                     u2060:
  2224  001662                     l2408:
  2225                           
  2226                           ;C:\Program Files\Microchip\xc8\v2.36\pic\sources\c99\common\doprnt.c: 322:         --i;
  2227  001662  063E               	decf	dtoa@i^0,f,c
  2228  001664  A0D8               	btfss	status,0,c
  2229  001666  063F               	decf	(dtoa@i+1)^0,f,c
  2230  001668                     
  2231                           ;C:\Program Files\Microchip\xc8\v2.36\pic\sources\c99\common\doprnt.c: 323:         dbuf
      +                          [i] = s ? '-' : '+';
  2232  001668  5034               	movf	dtoa@s^0,w,c
  2233  00166A  1035               	iorwf	(dtoa@s+1)^0,w,c
  2234  00166C  A4D8               	btfss	status,2,c
  2235  00166E  EF3B  F00B         	goto	u2071
  2236  001672  EF3D  F00B         	goto	u2070
  2237  001676                     u2071:
  2238  001676  EF43  F00B         	goto	l2414
  2239  00167A                     u2070:
  2240  00167A  0E00               	movlw	0
  2241  00167C  6E2F               	movwf	(_dtoa$1023+1)^0,c
  2242  00167E  0E2B               	movlw	43
  2243  001680  6E2E               	movwf	_dtoa$1023^0,c
  2244  001682  EF47  F00B         	goto	l2416
  2245  001686                     l2414:
  2246  001686  0E00               	movlw	0
  2247  001688  6E2F               	movwf	(_dtoa$1023+1)^0,c
  2248  00168A  0E2D               	movlw	45
  2249  00168C  6E2E               	movwf	_dtoa$1023^0,c
  2250  00168E                     l2416:
  2251  00168E  0E68               	movlw	low _dbuf
  2252  001690  243E               	addwf	dtoa@i^0,w,c
  2253  001692  6ED9               	movwf	fsr2l,c
  2254  001694  0E00               	movlw	high _dbuf
  2255  001696  203F               	addwfc	(dtoa@i+1)^0,w,c
  2256  001698  6EDA               	movwf	fsr2h,c
  2257  00169A  C02E  FFDF         	movff	_dtoa$1023,indf2
  2258  00169E                     l2418:
  2259                           
  2260                           ;C:\Program Files\Microchip\xc8\v2.36\pic\sources\c99\common\doprnt.c: 327:     return p
      +                          ad(fp, &dbuf[i], w);
  2261  00169E  C01C  F011         	movff	dtoa@fp,pad@fp
  2262  0016A2  C01D  F012         	movff	dtoa@fp+1,pad@fp+1
  2263  0016A6  0E68               	movlw	low _dbuf
  2264  0016A8  243E               	addwf	dtoa@i^0,w,c
  2265  0016AA  6E13               	movwf	pad@buf^0,c
  2266  0016AC  0E00               	movlw	high _dbuf
  2267  0016AE  203F               	addwfc	(dtoa@i+1)^0,w,c
  2268  0016B0  6E14               	movwf	(pad@buf+1)^0,c
  2269  0016B2  C032  F015         	movff	dtoa@w,pad@p
  2270  0016B6  C033  F016         	movff	dtoa@w+1,pad@p+1
  2271  0016BA  EC47  F00F         	call	_pad	;wreg free
  2272  0016BE  C011  F01C         	movff	?_pad,?_dtoa
  2273  0016C2  C012  F01D         	movff	?_pad+1,?_dtoa+1
  2274  0016C6  0012               	return		;funcret
  2275  0016C8                     __end_of_dtoa:
  2276                           	callstack 0
  2277                           
  2278 ;; *************** function _pad *****************
  2279 ;; Defined at:
  2280 ;;		line 72 in file "C:\Program Files\Microchip\xc8\v2.36\pic\sources\c99\common\doprnt.c"
  2281 ;; Parameters:    Size  Location     Type
  2282 ;;  fp              2   16[COMRAM] PTR struct _IO_FILE
  2283 ;;		 -> sprintf@f(11), 
  2284 ;;  buf             2   18[COMRAM] PTR unsigned char 
  2285 ;;		 -> dbuf(32), 
  2286 ;;  p               2   20[COMRAM] int 
  2287 ;; Auto vars:     Size  Location     Type
  2288 ;;  w               2   25[COMRAM] int 
  2289 ;;  i               2   23[COMRAM] int 
  2290 ;; Return value:  Size  Location     Type
  2291 ;;                  2   16[COMRAM] int 
  2292 ;; Registers used:
  2293 ;;		wreg, fsr1l, fsr1h, fsr2l, fsr2h, status,2, status,0, cstack
  2294 ;; Tracked objects:
  2295 ;;		On entry : 0/0
  2296 ;;		On exit  : 0/0
  2297 ;;		Unchanged: 0/0
  2298 ;; Data sizes:     COMRAM   BANK0   BANK1   BANK2   BANK3   BANK4   BANK5   BANK6   BANK7
  2299 ;;      Params:         6       0       0       0       0       0       0       0       0
  2300 ;;      Locals:         4       0       0       0       0       0       0       0       0
  2301 ;;      Temps:          1       0       0       0       0       0       0       0       0
  2302 ;;      Totals:        11       0       0       0       0       0       0       0       0
  2303 ;;Total ram usage:       11 bytes
  2304 ;; Hardware stack levels used: 1
  2305 ;; Hardware stack levels required when called: 3
  2306 ;; This function calls:
  2307 ;;		_fputc
  2308 ;;		_fputs
  2309 ;;		_strlen
  2310 ;; This function is called by:
  2311 ;;		_dtoa
  2312 ;; This function uses a non-reentrant model
  2313 ;;
  2314                           
  2315                           	psect	text8
  2316  001E8E                     __ptext8:
  2317                           	callstack 0
  2318  001E8E                     _pad:
  2319                           	callstack 21
  2320  001E8E                     
  2321                           ;C:\Program Files\Microchip\xc8\v2.36\pic\sources\c99\common\doprnt.c: 72: static int pa
      +                          d(FILE *fp, char *buf, int p);C:\Program Files\Microchip\xc8\v2.36\pic\sources\c99\commo
      +                          n\doprnt.c: 73: {;C:\Program Files\Microchip\xc8\v2.36\pic\sources\c99\common\doprnt.c: 
      +                          74:     int i, w;;C:\Program Files\Microchip\xc8\v2.36\pic\sources\c99\common\doprnt.c: 
      +                          77:     if (flags & (1 << 0)) {
  2322  001E8E  0100               	movlb	0	; () banked
  2323  001E90  A166               	btfss	_flags& (0+255),0,b
  2324  001E92  EF4D  F00F         	goto	u1841
  2325  001E96  EF4F  F00F         	goto	u1840
  2326  001E9A                     u1841:
  2327  001E9A  EF59  F00F         	goto	l2322
  2328  001E9E                     u1840:
  2329  001E9E                     
  2330                           ; BSR set to: 0
  2331                           ;C:\Program Files\Microchip\xc8\v2.36\pic\sources\c99\common\doprnt.c: 78:         fputs
      +                          ((const char *)buf, fp);
  2332  001E9E  C013  F00A         	movff	pad@buf,fputs@s
  2333  001EA2  C014  F00B         	movff	pad@buf+1,fputs@s+1
  2334  001EA6  C011  F00C         	movff	pad@fp,fputs@fp
  2335  001EAA  C012  F00D         	movff	pad@fp+1,fputs@fp+1
  2336  001EAE  ECEF  F012         	call	_fputs	;wreg free
  2337  001EB2                     l2322:
  2338                           
  2339                           ;C:\Program Files\Microchip\xc8\v2.36\pic\sources\c99\common\doprnt.c: 82:     w = (p < 
      +                          0) ? 0 : p;
  2340  001EB2  BE16               	btfsc	(pad@p+1)^0,7,c
  2341  001EB4  EF5E  F00F         	goto	u1851
  2342  001EB8  EF60  F00F         	goto	u1850
  2343  001EBC                     u1851:
  2344  001EBC  EF66  F00F         	goto	l2326
  2345  001EC0                     u1850:
  2346  001EC0  C015  F01A         	movff	pad@p,pad@w
  2347  001EC4  C016  F01B         	movff	pad@p+1,pad@w+1
  2348  001EC8  EF6A  F00F         	goto	l924
  2349  001ECC                     l2326:
  2350  001ECC  0E00               	movlw	0
  2351  001ECE  6E1B               	movwf	(pad@w+1)^0,c
  2352  001ED0  0E00               	movlw	0
  2353  001ED2  6E1A               	movwf	pad@w^0,c
  2354  001ED4                     l924:
  2355                           
  2356                           ;C:\Program Files\Microchip\xc8\v2.36\pic\sources\c99\common\doprnt.c: 83:     i = 0;
  2357  001ED4  0E00               	movlw	0
  2358  001ED6  6E19               	movwf	(pad@i+1)^0,c
  2359  001ED8  0E00               	movlw	0
  2360  001EDA  6E18               	movwf	pad@i^0,c
  2361                           
  2362                           ;C:\Program Files\Microchip\xc8\v2.36\pic\sources\c99\common\doprnt.c: 84:     while (i 
      +                          < w) {
  2363  001EDC  EF7C  F00F         	goto	l2332
  2364  001EE0                     l2328:
  2365                           
  2366                           ;C:\Program Files\Microchip\xc8\v2.36\pic\sources\c99\common\doprnt.c: 85:         fputc
      +                          (' ', fp);
  2367  001EE0  0E00               	movlw	0
  2368  001EE2  6E02               	movwf	(fputc@c+1)^0,c
  2369  001EE4  0E20               	movlw	32
  2370  001EE6  6E01               	movwf	fputc@c^0,c
  2371  001EE8  C011  F003         	movff	pad@fp,fputc@fp
  2372  001EEC  C012  F004         	movff	pad@fp+1,fputc@fp+1
  2373  001EF0  ECE2  F00E         	call	_fputc	;wreg free
  2374  001EF4                     
  2375                           ;C:\Program Files\Microchip\xc8\v2.36\pic\sources\c99\common\doprnt.c: 86:         ++i;
  2376  001EF4  4A18               	infsnz	pad@i^0,f,c
  2377  001EF6  2A19               	incf	(pad@i+1)^0,f,c
  2378  001EF8                     l2332:
  2379                           
  2380                           ;C:\Program Files\Microchip\xc8\v2.36\pic\sources\c99\common\doprnt.c: 84:     while (i 
      +                          < w) {
  2381  001EF8  501A               	movf	pad@w^0,w,c
  2382  001EFA  5C18               	subwf	pad@i^0,w,c
  2383  001EFC  5019               	movf	(pad@i+1)^0,w,c
  2384  001EFE  0A80               	xorlw	128
  2385  001F00  6E17               	movwf	??_pad^0,c
  2386  001F02  501B               	movf	(pad@w+1)^0,w,c
  2387  001F04  0A80               	xorlw	128
  2388  001F06  5817               	subwfb	??_pad^0,w,c
  2389  001F08  A0D8               	btfss	status,0,c
  2390  001F0A  EF89  F00F         	goto	u1861
  2391  001F0E  EF8B  F00F         	goto	u1860
  2392  001F12                     u1861:
  2393  001F12  EF70  F00F         	goto	l2328
  2394  001F16                     u1860:
  2395  001F16                     
  2396                           ;C:\Program Files\Microchip\xc8\v2.36\pic\sources\c99\common\doprnt.c: 90:     if (!(fla
      +                          gs & (1 << 0))) {
  2397  001F16  0100               	movlb	0	; () banked
  2398  001F18  B166               	btfsc	_flags& (0+255),0,b
  2399  001F1A  EF91  F00F         	goto	u1871
  2400  001F1E  EF93  F00F         	goto	u1870
  2401  001F22                     u1871:
  2402  001F22  EF9D  F00F         	goto	l2336
  2403  001F26                     u1870:
  2404  001F26                     
  2405                           ; BSR set to: 0
  2406                           ;C:\Program Files\Microchip\xc8\v2.36\pic\sources\c99\common\doprnt.c: 91:         fputs
      +                          ((const char *)buf, fp);
  2407  001F26  C013  F00A         	movff	pad@buf,fputs@s
  2408  001F2A  C014  F00B         	movff	pad@buf+1,fputs@s+1
  2409  001F2E  C011  F00C         	movff	pad@fp,fputs@fp
  2410  001F32  C012  F00D         	movff	pad@fp+1,fputs@fp+1
  2411  001F36  ECEF  F012         	call	_fputs	;wreg free
  2412  001F3A                     l2336:
  2413                           
  2414                           ;C:\Program Files\Microchip\xc8\v2.36\pic\sources\c99\common\doprnt.c: 94:     return (i
      +                          nt)(strlen(buf) + (size_t)w);
  2415  001F3A  C013  F001         	movff	pad@buf,strlen@s
  2416  001F3E  C014  F002         	movff	pad@buf+1,strlen@s+1
  2417  001F42  EC69  F013         	call	_strlen	;wreg free
  2418  001F46  501A               	movf	pad@w^0,w,c
  2419  001F48  2401               	addwf	?_strlen^0,w,c
  2420  001F4A  6E11               	movwf	?_pad^0,c
  2421  001F4C  501B               	movf	(pad@w+1)^0,w,c
  2422  001F4E  2002               	addwfc	(?_strlen+1)^0,w,c
  2423  001F50  6E12               	movwf	(?_pad+1)^0,c
  2424  001F52  0012               	return		;funcret
  2425  001F54                     __end_of_pad:
  2426                           	callstack 0
  2427                           
  2428 ;; *************** function _strlen *****************
  2429 ;; Defined at:
  2430 ;;		line 5 in file "C:\Program Files\Microchip\xc8\v2.36\pic\sources\c99\common\strlen.c"
  2431 ;; Parameters:    Size  Location     Type
  2432 ;;  s               2    0[COMRAM] PTR const unsigned char 
  2433 ;;		 -> dbuf(32), 
  2434 ;; Auto vars:     Size  Location     Type
  2435 ;;  a               2    2[COMRAM] PTR const unsigned char 
  2436 ;;		 -> dbuf(32), 
  2437 ;; Return value:  Size  Location     Type
  2438 ;;                  2    0[COMRAM] unsigned int 
  2439 ;; Registers used:
  2440 ;;		wreg, fsr2l, fsr2h, status,2, status,0
  2441 ;; Tracked objects:
  2442 ;;		On entry : 0/0
  2443 ;;		On exit  : 0/0
  2444 ;;		Unchanged: 0/0
  2445 ;; Data sizes:     COMRAM   BANK0   BANK1   BANK2   BANK3   BANK4   BANK5   BANK6   BANK7
  2446 ;;      Params:         2       0       0       0       0       0       0       0       0
  2447 ;;      Locals:         2       0       0       0       0       0       0       0       0
  2448 ;;      Temps:          0       0       0       0       0       0       0       0       0
  2449 ;;      Totals:         4       0       0       0       0       0       0       0       0
  2450 ;;Total ram usage:        4 bytes
  2451 ;; Hardware stack levels used: 1
  2452 ;; This function calls:
  2453 ;;		Nothing
  2454 ;; This function is called by:
  2455 ;;		_pad
  2456 ;; This function uses a non-reentrant model
  2457 ;;
  2458                           
  2459                           	psect	text9
  2460  0026D2                     __ptext9:
  2461                           	callstack 0
  2462  0026D2                     _strlen:
  2463                           	callstack 23
  2464  0026D2  C001  F003         	movff	strlen@s,strlen@a
  2465  0026D6  C002  F004         	movff	strlen@s+1,strlen@a+1
  2466  0026DA  EF71  F013         	goto	l2226
  2467  0026DE                     l2224:
  2468  0026DE  4A01               	infsnz	strlen@s^0,f,c
  2469  0026E0  2A02               	incf	(strlen@s+1)^0,f,c
  2470  0026E2                     l2226:
  2471  0026E2  C001  FFD9         	movff	strlen@s,fsr2l
  2472  0026E6  C002  FFDA         	movff	strlen@s+1,fsr2h
  2473  0026EA  50DF               	movf	indf2,w,c
  2474  0026EC  A4D8               	btfss	status,2,c
  2475  0026EE  EF7B  F013         	goto	u1701
  2476  0026F2  EF7D  F013         	goto	u1700
  2477  0026F6                     u1701:
  2478  0026F6  EF6F  F013         	goto	l2224
  2479  0026FA                     u1700:
  2480  0026FA  5003               	movf	strlen@a^0,w,c
  2481  0026FC  5C01               	subwf	strlen@s^0,w,c
  2482  0026FE  6E01               	movwf	?_strlen^0,c
  2483  002700  5004               	movf	(strlen@a+1)^0,w,c
  2484  002702  5802               	subwfb	(strlen@s+1)^0,w,c
  2485  002704  6E02               	movwf	(?_strlen+1)^0,c
  2486  002706  0012               	return		;funcret
  2487  002708                     __end_of_strlen:
  2488                           	callstack 0
  2489                           
  2490 ;; *************** function _fputs *****************
  2491 ;; Defined at:
  2492 ;;		line 8 in file "C:\Program Files\Microchip\xc8\v2.36\pic\sources\c99\common\nf_fputs.c"
  2493 ;; Parameters:    Size  Location     Type
  2494 ;;  s               2    9[COMRAM] PTR const unsigned char 
  2495 ;;		 -> dbuf(32), 
  2496 ;;  fp              2   11[COMRAM] PTR struct _IO_FILE
  2497 ;;		 -> sprintf@f(11), 
  2498 ;; Auto vars:     Size  Location     Type
  2499 ;;  i               2   14[COMRAM] int 
  2500 ;;  c               1   13[COMRAM] unsigned char 
  2501 ;; Return value:  Size  Location     Type
  2502 ;;                  2    9[COMRAM] int 
  2503 ;; Registers used:
  2504 ;;		wreg, fsr1l, fsr1h, fsr2l, fsr2h, status,2, status,0, cstack
  2505 ;; Tracked objects:
  2506 ;;		On entry : 0/0
  2507 ;;		On exit  : 0/0
  2508 ;;		Unchanged: 0/0
  2509 ;; Data sizes:     COMRAM   BANK0   BANK1   BANK2   BANK3   BANK4   BANK5   BANK6   BANK7
  2510 ;;      Params:         4       0       0       0       0       0       0       0       0
  2511 ;;      Locals:         3       0       0       0       0       0       0       0       0
  2512 ;;      Temps:          0       0       0       0       0       0       0       0       0
  2513 ;;      Totals:         7       0       0       0       0       0       0       0       0
  2514 ;;Total ram usage:        7 bytes
  2515 ;; Hardware stack levels used: 1
  2516 ;; Hardware stack levels required when called: 2
  2517 ;; This function calls:
  2518 ;;		_fputc
  2519 ;; This function is called by:
  2520 ;;		_pad
  2521 ;; This function uses a non-reentrant model
  2522 ;;
  2523                           
  2524                           	psect	text10
  2525  0025DE                     __ptext10:
  2526                           	callstack 0
  2527  0025DE                     _fputs:
  2528                           	callstack 21
  2529  0025DE  0E00               	movlw	0
  2530  0025E0  6E10               	movwf	(fputs@i+1)^0,c
  2531  0025E2  0E00               	movlw	0
  2532  0025E4  6E0F               	movwf	fputs@i^0,c
  2533  0025E6  EF00  F013         	goto	l2220
  2534  0025EA                     l2216:
  2535  0025EA  C00E  F001         	movff	fputs@c,fputc@c
  2536  0025EE  6A02               	clrf	(fputc@c+1)^0,c
  2537  0025F0  C00C  F003         	movff	fputs@fp,fputc@fp
  2538  0025F4  C00D  F004         	movff	fputs@fp+1,fputc@fp+1
  2539  0025F8  ECE2  F00E         	call	_fputc	;wreg free
  2540  0025FC  4A0F               	infsnz	fputs@i^0,f,c
  2541  0025FE  2A10               	incf	(fputs@i+1)^0,f,c
  2542  002600                     l2220:
  2543  002600  500F               	movf	fputs@i^0,w,c
  2544  002602  240A               	addwf	fputs@s^0,w,c
  2545  002604  6ED9               	movwf	fsr2l,c
  2546  002606  5010               	movf	(fputs@i+1)^0,w,c
  2547  002608  200B               	addwfc	(fputs@s+1)^0,w,c
  2548  00260A  6EDA               	movwf	fsr2h,c
  2549  00260C  50DF               	movf	indf2,w,c
  2550  00260E  6E0E               	movwf	fputs@c^0,c
  2551  002610  500E               	movf	fputs@c^0,w,c
  2552  002612  A4D8               	btfss	status,2,c
  2553  002614  EF0E  F013         	goto	u1691
  2554  002618  EF10  F013         	goto	u1690
  2555  00261C                     u1691:
  2556  00261C  EFF5  F012         	goto	l2216
  2557  002620                     u1690:
  2558  002620  0012               	return		;funcret
  2559  002622                     __end_of_fputs:
  2560                           	callstack 0
  2561                           
  2562 ;; *************** function _fputc *****************
  2563 ;; Defined at:
  2564 ;;		line 8 in file "C:\Program Files\Microchip\xc8\v2.36\pic\sources\c99\common\nf_fputc.c"
  2565 ;; Parameters:    Size  Location     Type
  2566 ;;  c               2    0[COMRAM] int 
  2567 ;;  fp              2    2[COMRAM] PTR struct _IO_FILE
  2568 ;;		 -> sprintf@f(11), 
  2569 ;; Auto vars:     Size  Location     Type
  2570 ;;		None
  2571 ;; Return value:  Size  Location     Type
  2572 ;;                  2    0[COMRAM] int 
  2573 ;; Registers used:
  2574 ;;		wreg, fsr1l, fsr1h, fsr2l, fsr2h, status,2, status,0, cstack
  2575 ;; Tracked objects:
  2576 ;;		On entry : 0/0
  2577 ;;		On exit  : 0/0
  2578 ;;		Unchanged: 0/0
  2579 ;; Data sizes:     COMRAM   BANK0   BANK1   BANK2   BANK3   BANK4   BANK5   BANK6   BANK7
  2580 ;;      Params:         4       0       0       0       0       0       0       0       0
  2581 ;;      Locals:         0       0       0       0       0       0       0       0       0
  2582 ;;      Temps:          5       0       0       0       0       0       0       0       0
  2583 ;;      Totals:         9       0       0       0       0       0       0       0       0
  2584 ;;Total ram usage:        9 bytes
  2585 ;; Hardware stack levels used: 1
  2586 ;; Hardware stack levels required when called: 1
  2587 ;; This function calls:
  2588 ;;		_putch
  2589 ;; This function is called by:
  2590 ;;		_pad
  2591 ;;		_vfpfcnvrt
  2592 ;;		_fputs
  2593 ;; This function uses a non-reentrant model
  2594 ;;
  2595                           
  2596                           	psect	text11
  2597  001DC4                     __ptext11:
  2598                           	callstack 0
  2599  001DC4                     _fputc:
  2600                           	callstack 24
  2601  001DC4  5003               	movf	fputc@fp^0,w,c
  2602  001DC6  1004               	iorwf	(fputc@fp+1)^0,w,c
  2603  001DC8  B4D8               	btfsc	status,2,c
  2604  001DCA  EFE9  F00E         	goto	u1651
  2605  001DCE  EFEB  F00E         	goto	u1650
  2606  001DD2                     u1651:
  2607  001DD2  EFF4  F00E         	goto	l2204
  2608  001DD6                     u1650:
  2609  001DD6  5003               	movf	fputc@fp^0,w,c
  2610  001DD8  1004               	iorwf	(fputc@fp+1)^0,w,c
  2611  001DDA  A4D8               	btfss	status,2,c
  2612  001DDC  EFF2  F00E         	goto	u1661
  2613  001DE0  EFF4  F00E         	goto	u1660
  2614  001DE4                     u1661:
  2615  001DE4  EFF9  F00E         	goto	l2206
  2616  001DE8                     u1660:
  2617  001DE8                     l2204:
  2618  001DE8  5001               	movf	fputc@c^0,w,c
  2619  001DEA  EC0D  F014         	call	_putch
  2620  001DEE  EF46  F00F         	goto	l1047
  2621  001DF2                     l2206:
  2622  001DF2  EE20 F009          	lfsr	2,9
  2623  001DF6  5003               	movf	fputc@fp^0,w,c
  2624  001DF8  26D9               	addwf	fsr2l,f,c
  2625  001DFA  5004               	movf	(fputc@fp+1)^0,w,c
  2626  001DFC  22DA               	addwfc	fsr2h,f,c
  2627  001DFE  50DE               	movf	postinc2,w,c
  2628  001E00  10DE               	iorwf	postinc2,w,c
  2629  001E02  B4D8               	btfsc	status,2,c
  2630  001E04  EF06  F00F         	goto	u1671
  2631  001E08  EF08  F00F         	goto	u1670
  2632  001E0C                     u1671:
  2633  001E0C  EF23  F00F         	goto	l2210
  2634  001E10                     u1670:
  2635  001E10  EE20 F009          	lfsr	2,9
  2636  001E14  5003               	movf	fputc@fp^0,w,c
  2637  001E16  26D9               	addwf	fsr2l,f,c
  2638  001E18  5004               	movf	(fputc@fp+1)^0,w,c
  2639  001E1A  22DA               	addwfc	fsr2h,f,c
  2640  001E1C  EE10 F003          	lfsr	1,3
  2641  001E20  5003               	movf	fputc@fp^0,w,c
  2642  001E22  26E1               	addwf	fsr1l,f,c
  2643  001E24  5004               	movf	(fputc@fp+1)^0,w,c
  2644  001E26  22E2               	addwfc	fsr1h,f,c
  2645  001E28  50DE               	movf	postinc2,w,c
  2646  001E2A  5CE6               	subwf	postinc1,w,c
  2647  001E2C  50E6               	movf	postinc1,w,c
  2648  001E2E  0A80               	xorlw	128
  2649  001E30  6E09               	movwf	(??_fputc+4)^0,c
  2650  001E32  50DE               	movf	postinc2,w,c
  2651  001E34  0A80               	xorlw	128
  2652  001E36  5809               	subwfb	(??_fputc+4)^0,w,c
  2653  001E38  B0D8               	btfsc	status,0,c
  2654  001E3A  EF21  F00F         	goto	u1681
  2655  001E3E  EF23  F00F         	goto	u1680
  2656  001E42                     u1681:
  2657  001E42  EF46  F00F         	goto	l1047
  2658  001E46                     u1680:
  2659  001E46                     l2210:
  2660  001E46  EE20 F003          	lfsr	2,3
  2661  001E4A  5003               	movf	fputc@fp^0,w,c
  2662  001E4C  26D9               	addwf	fsr2l,f,c
  2663  001E4E  5004               	movf	(fputc@fp+1)^0,w,c
  2664  001E50  22DA               	addwfc	fsr2h,f,c
  2665  001E52  CFDE F005          	movff	postinc2,??_fputc
  2666  001E56  CFDD F006          	movff	postdec2,??_fputc+1
  2667  001E5A  C003  FFD9         	movff	fputc@fp,fsr2l
  2668  001E5E  C004  FFDA         	movff	fputc@fp+1,fsr2h
  2669  001E62  CFDE F007          	movff	postinc2,??_fputc+2
  2670  001E66  CFDD F008          	movff	postdec2,??_fputc+3
  2671  001E6A  5005               	movf	??_fputc^0,w,c
  2672  001E6C  2407               	addwf	(??_fputc+2)^0,w,c
  2673  001E6E  6ED9               	movwf	fsr2l,c
  2674  001E70  5006               	movf	(??_fputc+1)^0,w,c
  2675  001E72  2008               	addwfc	(??_fputc+3)^0,w,c
  2676  001E74  6EDA               	movwf	fsr2h,c
  2677  001E76  C001  FFDF         	movff	fputc@c,indf2
  2678  001E7A  EE20 F003          	lfsr	2,3
  2679  001E7E  5003               	movf	fputc@fp^0,w,c
  2680  001E80  26D9               	addwf	fsr2l,f,c
  2681  001E82  5004               	movf	(fputc@fp+1)^0,w,c
  2682  001E84  22DA               	addwfc	fsr2h,f,c
  2683  001E86  2ADE               	incf	postinc2,f,c
  2684  001E88  0E00               	movlw	0
  2685  001E8A  22DD               	addwfc	postdec2,f,c
  2686  001E8C                     l1047:
  2687  001E8C  0012               	return		;funcret
  2688  001E8E                     __end_of_fputc:
  2689                           	callstack 0
  2690                           
  2691 ;; *************** function _putch *****************
  2692 ;; Defined at:
  2693 ;;		line 7 in file "C:\Program Files\Microchip\xc8\v2.36\pic\sources\c99\common\putch.c"
  2694 ;; Parameters:    Size  Location     Type
  2695 ;;  c               1    wreg     unsigned char 
  2696 ;; Auto vars:     Size  Location     Type
  2697 ;;  c               1    0[COMRAM] unsigned char 
  2698 ;; Return value:  Size  Location     Type
  2699 ;;                  1    wreg      void 
  2700 ;; Registers used:
  2701 ;;		wreg
  2702 ;; Tracked objects:
  2703 ;;		On entry : 0/0
  2704 ;;		On exit  : 0/0
  2705 ;;		Unchanged: 0/0
  2706 ;; Data sizes:     COMRAM   BANK0   BANK1   BANK2   BANK3   BANK4   BANK5   BANK6   BANK7
  2707 ;;      Params:         0       0       0       0       0       0       0       0       0
  2708 ;;      Locals:         0       0       0       0       0       0       0       0       0
  2709 ;;      Temps:          0       0       0       0       0       0       0       0       0
  2710 ;;      Totals:         0       0       0       0       0       0       0       0       0
  2711 ;;Total ram usage:        0 bytes
  2712 ;; Hardware stack levels used: 1
  2713 ;; This function calls:
  2714 ;;		Nothing
  2715 ;; This function is called by:
  2716 ;;		_fputc
  2717 ;; This function uses a non-reentrant model
  2718 ;;
  2719                           
  2720                           	psect	text12
  2721  00281A                     __ptext12:
  2722                           	callstack 0
  2723  00281A                     _putch:
  2724                           	callstack 24
  2725  00281A  0012               	return		;funcret
  2726  00281C                     __end_of_putch:
  2727                           	callstack 0
  2728                           
  2729 ;; *************** function _abs *****************
  2730 ;; Defined at:
  2731 ;;		line 1 in file "C:\Program Files\Microchip\xc8\v2.36\pic\sources\c99\common\abs.c"
  2732 ;; Parameters:    Size  Location     Type
  2733 ;;  a               2   18[COMRAM] int 
  2734 ;; Auto vars:     Size  Location     Type
  2735 ;;		None
  2736 ;; Return value:  Size  Location     Type
  2737 ;;                  2   18[COMRAM] int 
  2738 ;; Registers used:
  2739 ;;		wreg, status,2, status,0
  2740 ;; Tracked objects:
  2741 ;;		On entry : 0/0
  2742 ;;		On exit  : 0/0
  2743 ;;		Unchanged: 0/0
  2744 ;; Data sizes:     COMRAM   BANK0   BANK1   BANK2   BANK3   BANK4   BANK5   BANK6   BANK7
  2745 ;;      Params:         2       0       0       0       0       0       0       0       0
  2746 ;;      Locals:         0       0       0       0       0       0       0       0       0
  2747 ;;      Temps:          2       0       0       0       0       0       0       0       0
  2748 ;;      Totals:         4       0       0       0       0       0       0       0       0
  2749 ;;Total ram usage:        4 bytes
  2750 ;; Hardware stack levels used: 1
  2751 ;; This function calls:
  2752 ;;		Nothing
  2753 ;; This function is called by:
  2754 ;;		_dtoa
  2755 ;; This function uses a non-reentrant model
  2756 ;;
  2757                           
  2758                           	psect	text13
  2759  002622                     __ptext13:
  2760                           	callstack 0
  2761  002622                     _abs:
  2762                           	callstack 24
  2763  002622  BE14               	btfsc	(abs@a+1)^0,7,c
  2764  002624  EF1E  F013         	goto	u1880
  2765  002628  5014               	movf	(abs@a+1)^0,w,c
  2766  00262A  E106               	bnz	u1881
  2767  00262C  0413               	decf	abs@a^0,w,c
  2768  00262E  B0D8               	btfsc	status,0,c
  2769  002630  EF1C  F013         	goto	u1881
  2770  002634  EF1E  F013         	goto	u1880
  2771  002638                     u1881:
  2772  002638  EF2C  F013         	goto	l993
  2773  00263C                     u1880:
  2774  00263C  C013  F015         	movff	abs@a,??_abs
  2775  002640  C014  F016         	movff	abs@a+1,??_abs+1
  2776  002644  1E15               	comf	??_abs^0,f,c
  2777  002646  1E16               	comf	(??_abs+1)^0,f,c
  2778  002648  4A15               	infsnz	??_abs^0,f,c
  2779  00264A  2A16               	incf	(??_abs+1)^0,f,c
  2780  00264C  C015  F013         	movff	??_abs,?_abs
  2781  002650  C016  F014         	movff	??_abs+1,?_abs+1
  2782  002654  EF30  F013         	goto	l996
  2783  002658                     l993:
  2784  002658  C013  F013         	movff	abs@a,?_abs
  2785  00265C  C014  F014         	movff	abs@a+1,?_abs+1
  2786  002660                     l996:
  2787  002660  0012               	return		;funcret
  2788  002662                     __end_of_abs:
  2789                           	callstack 0
  2790                           
  2791 ;; *************** function ___aomod *****************
  2792 ;; Defined at:
  2793 ;;		line 9 in file "C:\Program Files\Microchip\xc8\v2.36\pic\sources\c99\common\aomod.c"
  2794 ;; Parameters:    Size  Location     Type
  2795 ;;  dividend        8    0[COMRAM] long long 
  2796 ;;  divisor         8    8[COMRAM] long long 
  2797 ;; Auto vars:     Size  Location     Type
  2798 ;;  sign            1   17[COMRAM] unsigned char 
  2799 ;;  counter         1   16[COMRAM] unsigned char 
  2800 ;; Return value:  Size  Location     Type
  2801 ;;                  8    0[COMRAM] long long 
  2802 ;; Registers used:
  2803 ;;		wreg, status,2, status,0
  2804 ;; Tracked objects:
  2805 ;;		On entry : 0/0
  2806 ;;		On exit  : 0/0
  2807 ;;		Unchanged: 0/0
  2808 ;; Data sizes:     COMRAM   BANK0   BANK1   BANK2   BANK3   BANK4   BANK5   BANK6   BANK7
  2809 ;;      Params:        16       0       0       0       0       0       0       0       0
  2810 ;;      Locals:         2       0       0       0       0       0       0       0       0
  2811 ;;      Temps:          0       0       0       0       0       0       0       0       0
  2812 ;;      Totals:        18       0       0       0       0       0       0       0       0
  2813 ;;Total ram usage:       18 bytes
  2814 ;; Hardware stack levels used: 1
  2815 ;; This function calls:
  2816 ;;		Nothing
  2817 ;; This function is called by:
  2818 ;;		_dtoa
  2819 ;; This function uses a non-reentrant model
  2820 ;;
  2821                           
  2822                           	psect	text14
  2823  001A04                     __ptext14:
  2824                           	callstack 0
  2825  001A04                     ___aomod:
  2826                           	callstack 24
  2827  001A04  0E00               	movlw	0
  2828  001A06  6E12               	movwf	___aomod@sign^0,c
  2829  001A08  BE08               	btfsc	(___aomod@dividend+7)^0,7,c
  2830  001A0A  EF0B  F00D         	goto	u1780
  2831  001A0E  EF09  F00D         	goto	u1781
  2832  001A12                     u1781:
  2833  001A12  EF1D  F00D         	goto	l2290
  2834  001A16                     u1780:
  2835  001A16  1E08               	comf	(___aomod@dividend+7)^0,f,c
  2836  001A18  1E07               	comf	(___aomod@dividend+6)^0,f,c
  2837  001A1A  1E06               	comf	(___aomod@dividend+5)^0,f,c
  2838  001A1C  1E05               	comf	(___aomod@dividend+4)^0,f,c
  2839  001A1E  1E04               	comf	(___aomod@dividend+3)^0,f,c
  2840  001A20  1E03               	comf	(___aomod@dividend+2)^0,f,c
  2841  001A22  1E02               	comf	(___aomod@dividend+1)^0,f,c
  2842  001A24  6C01               	negf	___aomod@dividend^0,c
  2843  001A26  0E00               	movlw	0
  2844  001A28  2202               	addwfc	(___aomod@dividend+1)^0,f,c
  2845  001A2A  2203               	addwfc	(___aomod@dividend+2)^0,f,c
  2846  001A2C  2204               	addwfc	(___aomod@dividend+3)^0,f,c
  2847  001A2E  2205               	addwfc	(___aomod@dividend+4)^0,f,c
  2848  001A30  2206               	addwfc	(___aomod@dividend+5)^0,f,c
  2849  001A32  2207               	addwfc	(___aomod@dividend+6)^0,f,c
  2850  001A34  2208               	addwfc	(___aomod@dividend+7)^0,f,c
  2851  001A36  0E01               	movlw	1
  2852  001A38  6E12               	movwf	___aomod@sign^0,c
  2853  001A3A                     l2290:
  2854  001A3A  BE10               	btfsc	(___aomod@divisor+7)^0,7,c
  2855  001A3C  EF24  F00D         	goto	u1790
  2856  001A40  EF22  F00D         	goto	u1791
  2857  001A44                     u1791:
  2858  001A44  EF34  F00D         	goto	l2294
  2859  001A48                     u1790:
  2860  001A48  1E10               	comf	(___aomod@divisor+7)^0,f,c
  2861  001A4A  1E0F               	comf	(___aomod@divisor+6)^0,f,c
  2862  001A4C  1E0E               	comf	(___aomod@divisor+5)^0,f,c
  2863  001A4E  1E0D               	comf	(___aomod@divisor+4)^0,f,c
  2864  001A50  1E0C               	comf	(___aomod@divisor+3)^0,f,c
  2865  001A52  1E0B               	comf	(___aomod@divisor+2)^0,f,c
  2866  001A54  1E0A               	comf	(___aomod@divisor+1)^0,f,c
  2867  001A56  6C09               	negf	___aomod@divisor^0,c
  2868  001A58  0E00               	movlw	0
  2869  001A5A  220A               	addwfc	(___aomod@divisor+1)^0,f,c
  2870  001A5C  220B               	addwfc	(___aomod@divisor+2)^0,f,c
  2871  001A5E  220C               	addwfc	(___aomod@divisor+3)^0,f,c
  2872  001A60  220D               	addwfc	(___aomod@divisor+4)^0,f,c
  2873  001A62  220E               	addwfc	(___aomod@divisor+5)^0,f,c
  2874  001A64  220F               	addwfc	(___aomod@divisor+6)^0,f,c
  2875  001A66  2210               	addwfc	(___aomod@divisor+7)^0,f,c
  2876  001A68                     l2294:
  2877  001A68  5009               	movf	___aomod@divisor^0,w,c
  2878  001A6A  100A               	iorwf	(___aomod@divisor+1)^0,w,c
  2879  001A6C  100B               	iorwf	(___aomod@divisor+2)^0,w,c
  2880  001A6E  100C               	iorwf	(___aomod@divisor+3)^0,w,c
  2881  001A70  100D               	iorwf	(___aomod@divisor+4)^0,w,c
  2882  001A72  100E               	iorwf	(___aomod@divisor+5)^0,w,c
  2883  001A74  100F               	iorwf	(___aomod@divisor+6)^0,w,c
  2884  001A76  1010               	iorwf	(___aomod@divisor+7)^0,w,c
  2885  001A78  B4D8               	btfsc	status,2,c
  2886  001A7A  EF41  F00D         	goto	u1801
  2887  001A7E  EF43  F00D         	goto	u1800
  2888  001A82                     u1801:
  2889  001A82  EF8B  F00D         	goto	l2310
  2890  001A86                     u1800:
  2891  001A86  0E01               	movlw	1
  2892  001A88  6E11               	movwf	___aomod@counter^0,c
  2893  001A8A  EF51  F00D         	goto	l2300
  2894  001A8E                     l2298:
  2895  001A8E  90D8               	bcf	status,0,c
  2896  001A90  3609               	rlcf	___aomod@divisor^0,f,c
  2897  001A92  360A               	rlcf	(___aomod@divisor+1)^0,f,c
  2898  001A94  360B               	rlcf	(___aomod@divisor+2)^0,f,c
  2899  001A96  360C               	rlcf	(___aomod@divisor+3)^0,f,c
  2900  001A98  360D               	rlcf	(___aomod@divisor+4)^0,f,c
  2901  001A9A  360E               	rlcf	(___aomod@divisor+5)^0,f,c
  2902  001A9C  360F               	rlcf	(___aomod@divisor+6)^0,f,c
  2903  001A9E  3610               	rlcf	(___aomod@divisor+7)^0,f,c
  2904  001AA0  2A11               	incf	___aomod@counter^0,f,c
  2905  001AA2                     l2300:
  2906  001AA2  AE10               	btfss	(___aomod@divisor+7)^0,7,c
  2907  001AA4  EF56  F00D         	goto	u1811
  2908  001AA8  EF58  F00D         	goto	u1810
  2909  001AAC                     u1811:
  2910  001AAC  EF47  F00D         	goto	l2298
  2911  001AB0                     u1810:
  2912  001AB0                     l2302:
  2913  001AB0  5009               	movf	___aomod@divisor^0,w,c
  2914  001AB2  5C01               	subwf	___aomod@dividend^0,w,c
  2915  001AB4  500A               	movf	(___aomod@divisor+1)^0,w,c
  2916  001AB6  5802               	subwfb	(___aomod@dividend+1)^0,w,c
  2917  001AB8  500B               	movf	(___aomod@divisor+2)^0,w,c
  2918  001ABA  5803               	subwfb	(___aomod@dividend+2)^0,w,c
  2919  001ABC  500C               	movf	(___aomod@divisor+3)^0,w,c
  2920  001ABE  5804               	subwfb	(___aomod@dividend+3)^0,w,c
  2921  001AC0  500D               	movf	(___aomod@divisor+4)^0,w,c
  2922  001AC2  5805               	subwfb	(___aomod@dividend+4)^0,w,c
  2923  001AC4  500E               	movf	(___aomod@divisor+5)^0,w,c
  2924  001AC6  5806               	subwfb	(___aomod@dividend+5)^0,w,c
  2925  001AC8  500F               	movf	(___aomod@divisor+6)^0,w,c
  2926  001ACA  5807               	subwfb	(___aomod@dividend+6)^0,w,c
  2927  001ACC  5010               	movf	(___aomod@divisor+7)^0,w,c
  2928  001ACE  5808               	subwfb	(___aomod@dividend+7)^0,w,c
  2929  001AD0  A0D8               	btfss	status,0,c
  2930  001AD2  EF6D  F00D         	goto	u1821
  2931  001AD6  EF6F  F00D         	goto	u1820
  2932  001ADA                     u1821:
  2933  001ADA  EF7F  F00D         	goto	l2306
  2934  001ADE                     u1820:
  2935  001ADE  5009               	movf	___aomod@divisor^0,w,c
  2936  001AE0  5E01               	subwf	___aomod@dividend^0,f,c
  2937  001AE2  500A               	movf	(___aomod@divisor+1)^0,w,c
  2938  001AE4  5A02               	subwfb	(___aomod@dividend+1)^0,f,c
  2939  001AE6  500B               	movf	(___aomod@divisor+2)^0,w,c
  2940  001AE8  5A03               	subwfb	(___aomod@dividend+2)^0,f,c
  2941  001AEA  500C               	movf	(___aomod@divisor+3)^0,w,c
  2942  001AEC  5A04               	subwfb	(___aomod@dividend+3)^0,f,c
  2943  001AEE  500D               	movf	(___aomod@divisor+4)^0,w,c
  2944  001AF0  5A05               	subwfb	(___aomod@dividend+4)^0,f,c
  2945  001AF2  500E               	movf	(___aomod@divisor+5)^0,w,c
  2946  001AF4  5A06               	subwfb	(___aomod@dividend+5)^0,f,c
  2947  001AF6  500F               	movf	(___aomod@divisor+6)^0,w,c
  2948  001AF8  5A07               	subwfb	(___aomod@dividend+6)^0,f,c
  2949  001AFA  5010               	movf	(___aomod@divisor+7)^0,w,c
  2950  001AFC  5A08               	subwfb	(___aomod@dividend+7)^0,f,c
  2951  001AFE                     l2306:
  2952  001AFE  90D8               	bcf	status,0,c
  2953  001B00  3210               	rrcf	(___aomod@divisor+7)^0,f,c
  2954  001B02  320F               	rrcf	(___aomod@divisor+6)^0,f,c
  2955  001B04  320E               	rrcf	(___aomod@divisor+5)^0,f,c
  2956  001B06  320D               	rrcf	(___aomod@divisor+4)^0,f,c
  2957  001B08  320C               	rrcf	(___aomod@divisor+3)^0,f,c
  2958  001B0A  320B               	rrcf	(___aomod@divisor+2)^0,f,c
  2959  001B0C  320A               	rrcf	(___aomod@divisor+1)^0,f,c
  2960  001B0E  3209               	rrcf	___aomod@divisor^0,f,c
  2961  001B10  2E11               	decfsz	___aomod@counter^0,f,c
  2962  001B12  EF58  F00D         	goto	l2302
  2963  001B16                     l2310:
  2964  001B16  5012               	movf	___aomod@sign^0,w,c
  2965  001B18  B4D8               	btfsc	status,2,c
  2966  001B1A  EF91  F00D         	goto	u1831
  2967  001B1E  EF93  F00D         	goto	u1830
  2968  001B22                     u1831:
  2969  001B22  EFA3  F00D         	goto	l2314
  2970  001B26                     u1830:
  2971  001B26  1E08               	comf	(___aomod@dividend+7)^0,f,c
  2972  001B28  1E07               	comf	(___aomod@dividend+6)^0,f,c
  2973  001B2A  1E06               	comf	(___aomod@dividend+5)^0,f,c
  2974  001B2C  1E05               	comf	(___aomod@dividend+4)^0,f,c
  2975  001B2E  1E04               	comf	(___aomod@dividend+3)^0,f,c
  2976  001B30  1E03               	comf	(___aomod@dividend+2)^0,f,c
  2977  001B32  1E02               	comf	(___aomod@dividend+1)^0,f,c
  2978  001B34  6C01               	negf	___aomod@dividend^0,c
  2979  001B36  0E00               	movlw	0
  2980  001B38  2202               	addwfc	(___aomod@dividend+1)^0,f,c
  2981  001B3A  2203               	addwfc	(___aomod@dividend+2)^0,f,c
  2982  001B3C  2204               	addwfc	(___aomod@dividend+3)^0,f,c
  2983  001B3E  2205               	addwfc	(___aomod@dividend+4)^0,f,c
  2984  001B40  2206               	addwfc	(___aomod@dividend+5)^0,f,c
  2985  001B42  2207               	addwfc	(___aomod@dividend+6)^0,f,c
  2986  001B44  2208               	addwfc	(___aomod@dividend+7)^0,f,c
  2987  001B46                     l2314:
  2988  001B46  C001  F001         	movff	___aomod@dividend,?___aomod
  2989  001B4A  C002  F002         	movff	___aomod@dividend+1,?___aomod+1
  2990  001B4E  C003  F003         	movff	___aomod@dividend+2,?___aomod+2
  2991  001B52  C004  F004         	movff	___aomod@dividend+3,?___aomod+3
  2992  001B56  C005  F005         	movff	___aomod@dividend+4,?___aomod+4
  2993  001B5A  C006  F006         	movff	___aomod@dividend+5,?___aomod+5
  2994  001B5E  C007  F007         	movff	___aomod@dividend+6,?___aomod+6
  2995  001B62  C008  F008         	movff	___aomod@dividend+7,?___aomod+7
  2996  001B66  0012               	return		;funcret
  2997  001B68                     __end_of___aomod:
  2998                           	callstack 0
  2999                           
  3000 ;; *************** function ___aodiv *****************
  3001 ;; Defined at:
  3002 ;;		line 9 in file "C:\Program Files\Microchip\xc8\v2.36\pic\sources\c99\common\aodiv.c"
  3003 ;; Parameters:    Size  Location     Type
  3004 ;;  dividend        8    0[COMRAM] long long 
  3005 ;;  divisor         8    8[COMRAM] long long 
  3006 ;; Auto vars:     Size  Location     Type
  3007 ;;  quotient        8   18[COMRAM] long long 
  3008 ;;  sign            1   17[COMRAM] unsigned char 
  3009 ;;  counter         1   16[COMRAM] unsigned char 
  3010 ;; Return value:  Size  Location     Type
  3011 ;;                  8    0[COMRAM] long long 
  3012 ;; Registers used:
  3013 ;;		wreg, fsr2l, fsr2h, status,2, status,0
  3014 ;; Tracked objects:
  3015 ;;		On entry : 0/0
  3016 ;;		On exit  : 0/0
  3017 ;;		Unchanged: 0/0
  3018 ;; Data sizes:     COMRAM   BANK0   BANK1   BANK2   BANK3   BANK4   BANK5   BANK6   BANK7
  3019 ;;      Params:        16       0       0       0       0       0       0       0       0
  3020 ;;      Locals:        10       0       0       0       0       0       0       0       0
  3021 ;;      Temps:          0       0       0       0       0       0       0       0       0
  3022 ;;      Totals:        26       0       0       0       0       0       0       0       0
  3023 ;;Total ram usage:       26 bytes
  3024 ;; Hardware stack levels used: 1
  3025 ;; This function calls:
  3026 ;;		Nothing
  3027 ;; This function is called by:
  3028 ;;		_dtoa
  3029 ;; This function uses a non-reentrant model
  3030 ;;
  3031                           
  3032                           	psect	text15
  3033  00187C                     __ptext15:
  3034                           	callstack 0
  3035  00187C                     ___aodiv:
  3036                           	callstack 24
  3037  00187C  0E00               	movlw	0
  3038  00187E  6E12               	movwf	___aodiv@sign^0,c
  3039  001880  BE10               	btfsc	(___aodiv@divisor+7)^0,7,c
  3040  001882  EF47  F00C         	goto	u1710
  3041  001886  EF45  F00C         	goto	u1711
  3042  00188A                     u1711:
  3043  00188A  EF59  F00C         	goto	l2246
  3044  00188E                     u1710:
  3045  00188E  1E10               	comf	(___aodiv@divisor+7)^0,f,c
  3046  001890  1E0F               	comf	(___aodiv@divisor+6)^0,f,c
  3047  001892  1E0E               	comf	(___aodiv@divisor+5)^0,f,c
  3048  001894  1E0D               	comf	(___aodiv@divisor+4)^0,f,c
  3049  001896  1E0C               	comf	(___aodiv@divisor+3)^0,f,c
  3050  001898  1E0B               	comf	(___aodiv@divisor+2)^0,f,c
  3051  00189A  1E0A               	comf	(___aodiv@divisor+1)^0,f,c
  3052  00189C  6C09               	negf	___aodiv@divisor^0,c
  3053  00189E  0E00               	movlw	0
  3054  0018A0  220A               	addwfc	(___aodiv@divisor+1)^0,f,c
  3055  0018A2  220B               	addwfc	(___aodiv@divisor+2)^0,f,c
  3056  0018A4  220C               	addwfc	(___aodiv@divisor+3)^0,f,c
  3057  0018A6  220D               	addwfc	(___aodiv@divisor+4)^0,f,c
  3058  0018A8  220E               	addwfc	(___aodiv@divisor+5)^0,f,c
  3059  0018AA  220F               	addwfc	(___aodiv@divisor+6)^0,f,c
  3060  0018AC  2210               	addwfc	(___aodiv@divisor+7)^0,f,c
  3061  0018AE  0E01               	movlw	1
  3062  0018B0  6E12               	movwf	___aodiv@sign^0,c
  3063  0018B2                     l2246:
  3064  0018B2  BE08               	btfsc	(___aodiv@dividend+7)^0,7,c
  3065  0018B4  EF60  F00C         	goto	u1720
  3066  0018B8  EF5E  F00C         	goto	u1721
  3067  0018BC                     u1721:
  3068  0018BC  EF72  F00C         	goto	l2252
  3069  0018C0                     u1720:
  3070  0018C0  1E08               	comf	(___aodiv@dividend+7)^0,f,c
  3071  0018C2  1E07               	comf	(___aodiv@dividend+6)^0,f,c
  3072  0018C4  1E06               	comf	(___aodiv@dividend+5)^0,f,c
  3073  0018C6  1E05               	comf	(___aodiv@dividend+4)^0,f,c
  3074  0018C8  1E04               	comf	(___aodiv@dividend+3)^0,f,c
  3075  0018CA  1E03               	comf	(___aodiv@dividend+2)^0,f,c
  3076  0018CC  1E02               	comf	(___aodiv@dividend+1)^0,f,c
  3077  0018CE  6C01               	negf	___aodiv@dividend^0,c
  3078  0018D0  0E00               	movlw	0
  3079  0018D2  2202               	addwfc	(___aodiv@dividend+1)^0,f,c
  3080  0018D4  2203               	addwfc	(___aodiv@dividend+2)^0,f,c
  3081  0018D6  2204               	addwfc	(___aodiv@dividend+3)^0,f,c
  3082  0018D8  2205               	addwfc	(___aodiv@dividend+4)^0,f,c
  3083  0018DA  2206               	addwfc	(___aodiv@dividend+5)^0,f,c
  3084  0018DC  2207               	addwfc	(___aodiv@dividend+6)^0,f,c
  3085  0018DE  2208               	addwfc	(___aodiv@dividend+7)^0,f,c
  3086  0018E0  0E01               	movlw	1
  3087  0018E2  1A12               	xorwf	___aodiv@sign^0,f,c
  3088  0018E4                     l2252:
  3089  0018E4  EE20  F013         	lfsr	2,___aodiv@quotient
  3090  0018E8  0E07               	movlw	7
  3091  0018EA                     u1731:
  3092  0018EA  6ADE               	clrf	postinc2,c
  3093  0018EC  06E8               	decf	wreg,f,c
  3094  0018EE  E2FD               	bc	u1731
  3095  0018F0  5009               	movf	___aodiv@divisor^0,w,c
  3096  0018F2  100A               	iorwf	(___aodiv@divisor+1)^0,w,c
  3097  0018F4  100B               	iorwf	(___aodiv@divisor+2)^0,w,c
  3098  0018F6  100C               	iorwf	(___aodiv@divisor+3)^0,w,c
  3099  0018F8  100D               	iorwf	(___aodiv@divisor+4)^0,w,c
  3100  0018FA  100E               	iorwf	(___aodiv@divisor+5)^0,w,c
  3101  0018FC  100F               	iorwf	(___aodiv@divisor+6)^0,w,c
  3102  0018FE  1010               	iorwf	(___aodiv@divisor+7)^0,w,c
  3103  001900  B4D8               	btfsc	status,2,c
  3104  001902  EF85  F00C         	goto	u1741
  3105  001906  EF87  F00C         	goto	u1740
  3106  00190A                     u1741:
  3107  00190A  EFD9  F00C         	goto	l2274
  3108  00190E                     u1740:
  3109  00190E  0E01               	movlw	1
  3110  001910  6E11               	movwf	___aodiv@counter^0,c
  3111  001912  EF95  F00C         	goto	l2260
  3112  001916                     l2258:
  3113  001916  90D8               	bcf	status,0,c
  3114  001918  3609               	rlcf	___aodiv@divisor^0,f,c
  3115  00191A  360A               	rlcf	(___aodiv@divisor+1)^0,f,c
  3116  00191C  360B               	rlcf	(___aodiv@divisor+2)^0,f,c
  3117  00191E  360C               	rlcf	(___aodiv@divisor+3)^0,f,c
  3118  001920  360D               	rlcf	(___aodiv@divisor+4)^0,f,c
  3119  001922  360E               	rlcf	(___aodiv@divisor+5)^0,f,c
  3120  001924  360F               	rlcf	(___aodiv@divisor+6)^0,f,c
  3121  001926  3610               	rlcf	(___aodiv@divisor+7)^0,f,c
  3122  001928  2A11               	incf	___aodiv@counter^0,f,c
  3123  00192A                     l2260:
  3124  00192A  AE10               	btfss	(___aodiv@divisor+7)^0,7,c
  3125  00192C  EF9A  F00C         	goto	u1751
  3126  001930  EF9C  F00C         	goto	u1750
  3127  001934                     u1751:
  3128  001934  EF8B  F00C         	goto	l2258
  3129  001938                     u1750:
  3130  001938                     l2262:
  3131  001938  90D8               	bcf	status,0,c
  3132  00193A  3613               	rlcf	___aodiv@quotient^0,f,c
  3133  00193C  3614               	rlcf	(___aodiv@quotient+1)^0,f,c
  3134  00193E  3615               	rlcf	(___aodiv@quotient+2)^0,f,c
  3135  001940  3616               	rlcf	(___aodiv@quotient+3)^0,f,c
  3136  001942  3617               	rlcf	(___aodiv@quotient+4)^0,f,c
  3137  001944  3618               	rlcf	(___aodiv@quotient+5)^0,f,c
  3138  001946  3619               	rlcf	(___aodiv@quotient+6)^0,f,c
  3139  001948  361A               	rlcf	(___aodiv@quotient+7)^0,f,c
  3140  00194A  5009               	movf	___aodiv@divisor^0,w,c
  3141  00194C  5C01               	subwf	___aodiv@dividend^0,w,c
  3142  00194E  500A               	movf	(___aodiv@divisor+1)^0,w,c
  3143  001950  5802               	subwfb	(___aodiv@dividend+1)^0,w,c
  3144  001952  500B               	movf	(___aodiv@divisor+2)^0,w,c
  3145  001954  5803               	subwfb	(___aodiv@dividend+2)^0,w,c
  3146  001956  500C               	movf	(___aodiv@divisor+3)^0,w,c
  3147  001958  5804               	subwfb	(___aodiv@dividend+3)^0,w,c
  3148  00195A  500D               	movf	(___aodiv@divisor+4)^0,w,c
  3149  00195C  5805               	subwfb	(___aodiv@dividend+4)^0,w,c
  3150  00195E  500E               	movf	(___aodiv@divisor+5)^0,w,c
  3151  001960  5806               	subwfb	(___aodiv@dividend+5)^0,w,c
  3152  001962  500F               	movf	(___aodiv@divisor+6)^0,w,c
  3153  001964  5807               	subwfb	(___aodiv@dividend+6)^0,w,c
  3154  001966  5010               	movf	(___aodiv@divisor+7)^0,w,c
  3155  001968  5808               	subwfb	(___aodiv@dividend+7)^0,w,c
  3156  00196A  A0D8               	btfss	status,0,c
  3157  00196C  EFBA  F00C         	goto	u1761
  3158  001970  EFBC  F00C         	goto	u1760
  3159  001974                     u1761:
  3160  001974  EFCD  F00C         	goto	l2270
  3161  001978                     u1760:
  3162  001978  5009               	movf	___aodiv@divisor^0,w,c
  3163  00197A  5E01               	subwf	___aodiv@dividend^0,f,c
  3164  00197C  500A               	movf	(___aodiv@divisor+1)^0,w,c
  3165  00197E  5A02               	subwfb	(___aodiv@dividend+1)^0,f,c
  3166  001980  500B               	movf	(___aodiv@divisor+2)^0,w,c
  3167  001982  5A03               	subwfb	(___aodiv@dividend+2)^0,f,c
  3168  001984  500C               	movf	(___aodiv@divisor+3)^0,w,c
  3169  001986  5A04               	subwfb	(___aodiv@dividend+3)^0,f,c
  3170  001988  500D               	movf	(___aodiv@divisor+4)^0,w,c
  3171  00198A  5A05               	subwfb	(___aodiv@dividend+4)^0,f,c
  3172  00198C  500E               	movf	(___aodiv@divisor+5)^0,w,c
  3173  00198E  5A06               	subwfb	(___aodiv@dividend+5)^0,f,c
  3174  001990  500F               	movf	(___aodiv@divisor+6)^0,w,c
  3175  001992  5A07               	subwfb	(___aodiv@dividend+6)^0,f,c
  3176  001994  5010               	movf	(___aodiv@divisor+7)^0,w,c
  3177  001996  5A08               	subwfb	(___aodiv@dividend+7)^0,f,c
  3178  001998  8013               	bsf	___aodiv@quotient^0,0,c
  3179  00199A                     l2270:
  3180  00199A  90D8               	bcf	status,0,c
  3181  00199C  3210               	rrcf	(___aodiv@divisor+7)^0,f,c
  3182  00199E  320F               	rrcf	(___aodiv@divisor+6)^0,f,c
  3183  0019A0  320E               	rrcf	(___aodiv@divisor+5)^0,f,c
  3184  0019A2  320D               	rrcf	(___aodiv@divisor+4)^0,f,c
  3185  0019A4  320C               	rrcf	(___aodiv@divisor+3)^0,f,c
  3186  0019A6  320B               	rrcf	(___aodiv@divisor+2)^0,f,c
  3187  0019A8  320A               	rrcf	(___aodiv@divisor+1)^0,f,c
  3188  0019AA  3209               	rrcf	___aodiv@divisor^0,f,c
  3189  0019AC  2E11               	decfsz	___aodiv@counter^0,f,c
  3190  0019AE  EF9C  F00C         	goto	l2262
  3191  0019B2                     l2274:
  3192  0019B2  5012               	movf	___aodiv@sign^0,w,c
  3193  0019B4  B4D8               	btfsc	status,2,c
  3194  0019B6  EFDF  F00C         	goto	u1771
  3195  0019BA  EFE1  F00C         	goto	u1770
  3196  0019BE                     u1771:
  3197  0019BE  EFF1  F00C         	goto	l2278
  3198  0019C2                     u1770:
  3199  0019C2  1E1A               	comf	(___aodiv@quotient+7)^0,f,c
  3200  0019C4  1E19               	comf	(___aodiv@quotient+6)^0,f,c
  3201  0019C6  1E18               	comf	(___aodiv@quotient+5)^0,f,c
  3202  0019C8  1E17               	comf	(___aodiv@quotient+4)^0,f,c
  3203  0019CA  1E16               	comf	(___aodiv@quotient+3)^0,f,c
  3204  0019CC  1E15               	comf	(___aodiv@quotient+2)^0,f,c
  3205  0019CE  1E14               	comf	(___aodiv@quotient+1)^0,f,c
  3206  0019D0  6C13               	negf	___aodiv@quotient^0,c
  3207  0019D2  0E00               	movlw	0
  3208  0019D4  2214               	addwfc	(___aodiv@quotient+1)^0,f,c
  3209  0019D6  2215               	addwfc	(___aodiv@quotient+2)^0,f,c
  3210  0019D8  2216               	addwfc	(___aodiv@quotient+3)^0,f,c
  3211  0019DA  2217               	addwfc	(___aodiv@quotient+4)^0,f,c
  3212  0019DC  2218               	addwfc	(___aodiv@quotient+5)^0,f,c
  3213  0019DE  2219               	addwfc	(___aodiv@quotient+6)^0,f,c
  3214  0019E0  221A               	addwfc	(___aodiv@quotient+7)^0,f,c
  3215  0019E2                     l2278:
  3216  0019E2  C013  F001         	movff	___aodiv@quotient,?___aodiv
  3217  0019E6  C014  F002         	movff	___aodiv@quotient+1,?___aodiv+1
  3218  0019EA  C015  F003         	movff	___aodiv@quotient+2,?___aodiv+2
  3219  0019EE  C016  F004         	movff	___aodiv@quotient+3,?___aodiv+3
  3220  0019F2  C017  F005         	movff	___aodiv@quotient+4,?___aodiv+4
  3221  0019F6  C018  F006         	movff	___aodiv@quotient+5,?___aodiv+5
  3222  0019FA  C019  F007         	movff	___aodiv@quotient+6,?___aodiv+6
  3223  0019FE  C01A  F008         	movff	___aodiv@quotient+7,?___aodiv+7
  3224  001A02  0012               	return		;funcret
  3225  001A04                     __end_of___aodiv:
  3226                           	callstack 0
  3227                           
  3228 ;; *************** function _atoi *****************
  3229 ;; Defined at:
  3230 ;;		line 4 in file "C:\Program Files\Microchip\xc8\v2.36\pic\sources\c99\common\atoi.c"
  3231 ;; Parameters:    Size  Location     Type
  3232 ;;  s               2    7[COMRAM] PTR const unsigned char 
  3233 ;;		 -> STR_6(18), 
  3234 ;; Auto vars:     Size  Location     Type
  3235 ;;  n               2   15[COMRAM] int 
  3236 ;;  neg             2   13[COMRAM] int 
  3237 ;; Return value:  Size  Location     Type
  3238 ;;                  2    7[COMRAM] int 
  3239 ;; Registers used:
  3240 ;;		wreg, status,2, status,0, tblptrl, tblptrh, tblptru, prodl, prodh, cstack
  3241 ;; Tracked objects:
  3242 ;;		On entry : 0/0
  3243 ;;		On exit  : 0/0
  3244 ;;		Unchanged: 0/0
  3245 ;; Data sizes:     COMRAM   BANK0   BANK1   BANK2   BANK3   BANK4   BANK5   BANK6   BANK7
  3246 ;;      Params:         2       0       0       0       0       0       0       0       0
  3247 ;;      Locals:         4       0       0       0       0       0       0       0       0
  3248 ;;      Temps:          4       0       0       0       0       0       0       0       0
  3249 ;;      Totals:        10       0       0       0       0       0       0       0       0
  3250 ;;Total ram usage:       10 bytes
  3251 ;; Hardware stack levels used: 1
  3252 ;; Hardware stack levels required when called: 1
  3253 ;; This function calls:
  3254 ;;		___wmul
  3255 ;;		_isdigit
  3256 ;;		_isspace
  3257 ;; This function is called by:
  3258 ;;		_vfpfcnvrt
  3259 ;; This function uses a non-reentrant model
  3260 ;;
  3261                           
  3262                           	psect	text16
  3263  001B68                     __ptext16:
  3264                           	callstack 0
  3265  001B68                     _atoi:
  3266                           	callstack 24
  3267  001B68  0E00               	movlw	0
  3268  001B6A  6E11               	movwf	(atoi@n+1)^0,c
  3269  001B6C  0E00               	movlw	0
  3270  001B6E  6E10               	movwf	atoi@n^0,c
  3271  001B70  0E00               	movlw	0
  3272  001B72  6E0F               	movwf	(atoi@neg+1)^0,c
  3273  001B74  0E00               	movlw	0
  3274  001B76  6E0E               	movwf	atoi@neg^0,c
  3275  001B78  EFC0  F00D         	goto	l2428
  3276  001B7C                     l2424:
  3277  001B7C  4A08               	infsnz	atoi@s^0,f,c
  3278  001B7E  2A09               	incf	(atoi@s+1)^0,f,c
  3279  001B80                     l2428:
  3280  001B80  C008  FFF6         	movff	atoi@s,tblptrl
  3281  001B84  C009  FFF7         	movff	atoi@s+1,tblptrh
  3282  001B88                     	if	0	;tblptru may be non-zero
  3283  001B88                     	endif
  3284  001B88                     	if	0	;tblptru may be non-zero
  3285  001B88                     	endif
  3286  001B88  0008               	tblrd		*
  3287  001B8A  50F5               	movf	tablat,w,c
  3288  001B8C  0A20               	xorlw	32
  3289  001B8E  B4D8               	btfsc	status,2,c
  3290  001B90  EFCC  F00D         	goto	u2081
  3291  001B94  EFCE  F00D         	goto	u2080
  3292  001B98                     u2081:
  3293  001B98  EFBE  F00D         	goto	l2424
  3294  001B9C                     u2080:
  3295  001B9C  0EF7               	movlw	247
  3296  001B9E  6E0A               	movwf	??_atoi^0,c
  3297  001BA0  0EFF               	movlw	255
  3298  001BA2  6E0B               	movwf	(??_atoi+1)^0,c
  3299  001BA4  C008  FFF6         	movff	atoi@s,tblptrl
  3300  001BA8  C009  FFF7         	movff	atoi@s+1,tblptrh
  3301  001BAC                     	if	0	;tblptru may be non-zero
  3302  001BAC                     	endif
  3303  001BAC                     	if	0	;tblptru may be non-zero
  3304  001BAC                     	endif
  3305  001BAC  0008               	tblrd		*
  3306  001BAE  50F5               	movf	tablat,w,c
  3307  001BB0  6E0C               	movwf	(??_atoi+2)^0,c
  3308  001BB2  6A0D               	clrf	(??_atoi+3)^0,c
  3309  001BB4  500A               	movf	??_atoi^0,w,c
  3310  001BB6  260C               	addwf	(??_atoi+2)^0,f,c
  3311  001BB8  500B               	movf	(??_atoi+1)^0,w,c
  3312  001BBA  220D               	addwfc	(??_atoi+3)^0,f,c
  3313  001BBC  500D               	movf	(??_atoi+3)^0,w,c
  3314  001BBE  E109               	bnz	u2090
  3315  001BC0  0E05               	movlw	5
  3316  001BC2  5C0C               	subwf	(??_atoi+2)^0,w,c
  3317  001BC4  A0D8               	btfss	status,0,c
  3318  001BC6  EFE7  F00D         	goto	u2091
  3319  001BCA  EFE9  F00D         	goto	u2090
  3320  001BCE                     u2091:
  3321  001BCE  EFBE  F00D         	goto	l2424
  3322  001BD2                     u2090:
  3323  001BD2  EFF3  F00D         	goto	l2436
  3324  001BD6                     l2432:
  3325  001BD6  0E00               	movlw	0
  3326  001BD8  6E0F               	movwf	(atoi@neg+1)^0,c
  3327  001BDA  0E01               	movlw	1
  3328  001BDC  6E0E               	movwf	atoi@neg^0,c
  3329  001BDE                     l2434:
  3330  001BDE  4A08               	infsnz	atoi@s^0,f,c
  3331  001BE0  2A09               	incf	(atoi@s+1)^0,f,c
  3332  001BE2  EF28  F00E         	goto	l2444
  3333  001BE6                     l2436:
  3334  001BE6  C008  FFF6         	movff	atoi@s,tblptrl
  3335  001BEA  C009  FFF7         	movff	atoi@s+1,tblptrh
  3336  001BEE                     	if	0	;tblptru may be non-zero
  3337  001BEE                     	endif
  3338  001BEE                     	if	0	;tblptru may be non-zero
  3339  001BEE                     	endif
  3340  001BEE  0008               	tblrd		*
  3341  001BF0  50F5               	movf	tablat,w,c
  3342  001BF2  6E0A               	movwf	??_atoi^0,c
  3343  001BF4  6A0B               	clrf	(??_atoi+1)^0,c
  3344                           
  3345                           ; Switch on 2 bytes has been partitioned into a top level switch of size 1, and 1 sub-sw
      +                          itches
  3346                           ; Switch size 1, requested type "simple"
  3347                           ; Number of cases is 1, Range of values is 0 to 0
  3348                           ; switch strategies available:
  3349                           ; Name         Instructions Cycles
  3350                           ; simple_byte            4     3 (average)
  3351                           ;	Chosen strategy is simple_byte
  3352  001BF6  500B               	movf	(??_atoi+1)^0,w,c
  3353  001BF8  0A00               	xorlw	0	; case 0
  3354  001BFA  B4D8               	btfsc	status,2,c
  3355  001BFC  EF02  F00E         	goto	l3326
  3356  001C00  EF28  F00E         	goto	l2444
  3357  001C04                     l3326:
  3358                           
  3359                           ; Switch size 1, requested type "simple"
  3360                           ; Number of cases is 2, Range of values is 43 to 45
  3361                           ; switch strategies available:
  3362                           ; Name         Instructions Cycles
  3363                           ; simple_byte            7     4 (average)
  3364                           ;	Chosen strategy is simple_byte
  3365  001C04  500A               	movf	??_atoi^0,w,c
  3366  001C06  0A2B               	xorlw	43	; case 43
  3367  001C08  B4D8               	btfsc	status,2,c
  3368  001C0A  EFEF  F00D         	goto	l2434
  3369  001C0E  0A06               	xorlw	6	; case 45
  3370  001C10  B4D8               	btfsc	status,2,c
  3371  001C12  EFEB  F00D         	goto	l2432
  3372  001C16  EF28  F00E         	goto	l2444
  3373  001C1A                     l2438:
  3374  001C1A  C010  F001         	movff	atoi@n,___wmul@multiplier
  3375  001C1E  C011  F002         	movff	atoi@n+1,___wmul@multiplier+1
  3376  001C22  0E00               	movlw	0
  3377  001C24  6E04               	movwf	(___wmul@multiplicand+1)^0,c
  3378  001C26  0E0A               	movlw	10
  3379  001C28  6E03               	movwf	___wmul@multiplicand^0,c
  3380  001C2A  ECB9  F013         	call	___wmul	;wreg free
  3381  001C2E  C008  FFF6         	movff	atoi@s,tblptrl
  3382  001C32  C009  FFF7         	movff	atoi@s+1,tblptrh
  3383  001C36                     	if	0	;tblptru may be non-zero
  3384  001C36                     	endif
  3385  001C36                     	if	0	;tblptru may be non-zero
  3386  001C36                     	endif
  3387  001C36  0008               	tblrd		*
  3388  001C38  50F5               	movf	tablat,w,c
  3389  001C3A  5E01               	subwf	?___wmul^0,f,c
  3390  001C3C  0E00               	movlw	0
  3391  001C3E  5A02               	subwfb	(?___wmul+1)^0,f,c
  3392  001C40  0E30               	movlw	48
  3393  001C42  2401               	addwf	?___wmul^0,w,c
  3394  001C44  6E10               	movwf	atoi@n^0,c
  3395  001C46  0E00               	movlw	0
  3396  001C48  2002               	addwfc	(?___wmul+1)^0,w,c
  3397  001C4A  6E11               	movwf	(atoi@n+1)^0,c
  3398  001C4C  EFEF  F00D         	goto	l2434
  3399  001C50                     l2444:
  3400  001C50  0ED0               	movlw	208
  3401  001C52  6E0A               	movwf	??_atoi^0,c
  3402  001C54  0EFF               	movlw	255
  3403  001C56  6E0B               	movwf	(??_atoi+1)^0,c
  3404  001C58  C008  FFF6         	movff	atoi@s,tblptrl
  3405  001C5C  C009  FFF7         	movff	atoi@s+1,tblptrh
  3406  001C60                     	if	0	;tblptru may be non-zero
  3407  001C60                     	endif
  3408  001C60                     	if	0	;tblptru may be non-zero
  3409  001C60                     	endif
  3410  001C60  0008               	tblrd		*
  3411  001C62  50F5               	movf	tablat,w,c
  3412  001C64  6E0C               	movwf	(??_atoi+2)^0,c
  3413  001C66  6A0D               	clrf	(??_atoi+3)^0,c
  3414  001C68  500A               	movf	??_atoi^0,w,c
  3415  001C6A  260C               	addwf	(??_atoi+2)^0,f,c
  3416  001C6C  500B               	movf	(??_atoi+1)^0,w,c
  3417  001C6E  220D               	addwfc	(??_atoi+3)^0,f,c
  3418  001C70  500D               	movf	(??_atoi+3)^0,w,c
  3419  001C72  E109               	bnz	u2100
  3420  001C74  0E0A               	movlw	10
  3421  001C76  5C0C               	subwf	(??_atoi+2)^0,w,c
  3422  001C78  A0D8               	btfss	status,0,c
  3423  001C7A  EF41  F00E         	goto	u2101
  3424  001C7E  EF43  F00E         	goto	u2100
  3425  001C82                     u2101:
  3426  001C82  EF0D  F00E         	goto	l2438
  3427  001C86                     u2100:
  3428  001C86  500E               	movf	atoi@neg^0,w,c
  3429  001C88  100F               	iorwf	(atoi@neg+1)^0,w,c
  3430  001C8A  A4D8               	btfss	status,2,c
  3431  001C8C  EF4A  F00E         	goto	u2111
  3432  001C90  EF4C  F00E         	goto	u2110
  3433  001C94                     u2111:
  3434  001C94  EF5A  F00E         	goto	l1018
  3435  001C98                     u2110:
  3436  001C98  C010  F00A         	movff	atoi@n,??_atoi
  3437  001C9C  C011  F00B         	movff	atoi@n+1,??_atoi+1
  3438  001CA0  1E0A               	comf	??_atoi^0,f,c
  3439  001CA2  1E0B               	comf	(??_atoi+1)^0,f,c
  3440  001CA4  4A0A               	infsnz	??_atoi^0,f,c
  3441  001CA6  2A0B               	incf	(??_atoi+1)^0,f,c
  3442  001CA8  C00A  F008         	movff	??_atoi,?_atoi
  3443  001CAC  C00B  F009         	movff	??_atoi+1,?_atoi+1
  3444  001CB0  EF5E  F00E         	goto	l1021
  3445  001CB4                     l1018:
  3446  001CB4  C010  F008         	movff	atoi@n,?_atoi
  3447  001CB8  C011  F009         	movff	atoi@n+1,?_atoi+1
  3448  001CBC                     l1021:
  3449  001CBC  0012               	return		;funcret
  3450  001CBE                     __end_of_atoi:
  3451                           	callstack 0
  3452                           
  3453 ;; *************** function _isspace *****************
  3454 ;; Defined at:
  3455 ;;		line 5 in file "C:\Program Files\Microchip\xc8\v2.36\pic\sources\c99\common\isspace.c"
  3456 ;; Parameters:    Size  Location     Type
  3457 ;;  c               2    0[COMRAM] int 
  3458 ;; Auto vars:     Size  Location     Type
  3459 ;;		None
  3460 ;; Return value:  Size  Location     Type
  3461 ;;                  2    0[COMRAM] int 
  3462 ;; Registers used:
  3463 ;;		wreg, status,2, status,0
  3464 ;; Tracked objects:
  3465 ;;		On entry : 0/0
  3466 ;;		On exit  : 0/0
  3467 ;;		Unchanged: 0/0
  3468 ;; Data sizes:     COMRAM   BANK0   BANK1   BANK2   BANK3   BANK4   BANK5   BANK6   BANK7
  3469 ;;      Params:         2       0       0       0       0       0       0       0       0
  3470 ;;      Locals:         1       0       0       0       0       0       0       0       0
  3471 ;;      Temps:          4       0       0       0       0       0       0       0       0
  3472 ;;      Totals:         7       0       0       0       0       0       0       0       0
  3473 ;;Total ram usage:        7 bytes
  3474 ;; Hardware stack levels used: 1
  3475 ;; This function calls:
  3476 ;;		Nothing
  3477 ;; This function is called by:
  3478 ;;		_atoi
  3479 ;; This function uses a non-reentrant model
  3480 ;;
  3481                           
  3482                           	psect	text17
  3483  00258C                     __ptext17:
  3484                           	callstack 0
  3485  00258C                     _isspace:
  3486                           	callstack 24
  3487  00258C  0E01               	movlw	1
  3488  00258E  6E07               	movwf	_isspace$1072^0,c
  3489  002590  0E20               	movlw	32
  3490  002592  1801               	xorwf	isspace@c^0,w,c
  3491  002594  1002               	iorwf	(isspace@c+1)^0,w,c
  3492  002596  B4D8               	btfsc	status,2,c
  3493  002598  EFD0  F012         	goto	u1911
  3494  00259C  EFD2  F012         	goto	u1910
  3495  0025A0                     u1911:
  3496  0025A0  EFEB  F012         	goto	l2356
  3497  0025A4                     u1910:
  3498  0025A4  0EF7               	movlw	247
  3499  0025A6  6E03               	movwf	??_isspace^0,c
  3500  0025A8  0EFF               	movlw	255
  3501  0025AA  6E04               	movwf	(??_isspace+1)^0,c
  3502  0025AC  C001  F005         	movff	isspace@c,??_isspace+2
  3503  0025B0  C002  F006         	movff	isspace@c+1,??_isspace+3
  3504  0025B4  5003               	movf	??_isspace^0,w,c
  3505  0025B6  2605               	addwf	(??_isspace+2)^0,f,c
  3506  0025B8  5004               	movf	(??_isspace+1)^0,w,c
  3507  0025BA  2206               	addwfc	(??_isspace+3)^0,f,c
  3508  0025BC  5006               	movf	(??_isspace+3)^0,w,c
  3509  0025BE  E109               	bnz	u1920
  3510  0025C0  0E05               	movlw	5
  3511  0025C2  5C05               	subwf	(??_isspace+2)^0,w,c
  3512  0025C4  A0D8               	btfss	status,0,c
  3513  0025C6  EFE7  F012         	goto	u1921
  3514  0025CA  EFE9  F012         	goto	u1920
  3515  0025CE                     u1921:
  3516  0025CE  EFEB  F012         	goto	l2356
  3517  0025D2                     u1920:
  3518  0025D2  0E00               	movlw	0
  3519  0025D4  6E07               	movwf	_isspace$1072^0,c
  3520  0025D6                     l2356:
  3521  0025D6  C007  F001         	movff	_isspace$1072,?_isspace
  3522  0025DA  6A02               	clrf	(?_isspace+1)^0,c
  3523  0025DC  0012               	return		;funcret
  3524  0025DE                     __end_of_isspace:
  3525                           	callstack 0
  3526                           
  3527 ;; *************** function _isdigit *****************
  3528 ;; Defined at:
  3529 ;;		line 5 in file "C:\Program Files\Microchip\xc8\v2.36\pic\sources\c99\common\isdigit.c"
  3530 ;; Parameters:    Size  Location     Type
  3531 ;;  c               2    0[COMRAM] int 
  3532 ;; Auto vars:     Size  Location     Type
  3533 ;;		None
  3534 ;; Return value:  Size  Location     Type
  3535 ;;                  2    0[COMRAM] int 
  3536 ;; Registers used:
  3537 ;;		wreg, status,2, status,0
  3538 ;; Tracked objects:
  3539 ;;		On entry : 0/0
  3540 ;;		On exit  : 0/0
  3541 ;;		Unchanged: 0/0
  3542 ;; Data sizes:     COMRAM   BANK0   BANK1   BANK2   BANK3   BANK4   BANK5   BANK6   BANK7
  3543 ;;      Params:         2       0       0       0       0       0       0       0       0
  3544 ;;      Locals:         0       0       0       0       0       0       0       0       0
  3545 ;;      Temps:          4       0       0       0       0       0       0       0       0
  3546 ;;      Totals:         6       0       0       0       0       0       0       0       0
  3547 ;;Total ram usage:        6 bytes
  3548 ;; Hardware stack levels used: 1
  3549 ;; This function calls:
  3550 ;;		Nothing
  3551 ;; This function is called by:
  3552 ;;		_vfpfcnvrt
  3553 ;;		_atoi
  3554 ;; This function uses a non-reentrant model
  3555 ;;
  3556                           
  3557                           	psect	text18
  3558  002662                     __ptext18:
  3559                           	callstack 0
  3560  002662                     _isdigit:
  3561                           	callstack 25
  3562  002662  0ED0               	movlw	208
  3563  002664  6E03               	movwf	??_isdigit^0,c
  3564  002666  0EFF               	movlw	255
  3565  002668  6E04               	movwf	(??_isdigit+1)^0,c
  3566  00266A  C001  F005         	movff	isdigit@c,??_isdigit+2
  3567  00266E  C002  F006         	movff	isdigit@c+1,??_isdigit+3
  3568  002672  5003               	movf	??_isdigit^0,w,c
  3569  002674  2605               	addwf	(??_isdigit+2)^0,f,c
  3570  002676  5004               	movf	(??_isdigit+1)^0,w,c
  3571  002678  2206               	addwfc	(??_isdigit+3)^0,f,c
  3572  00267A  5006               	movf	(??_isdigit+3)^0,w,c
  3573  00267C  E10A               	bnz	u1890
  3574  00267E  0E0A               	movlw	10
  3575  002680  5C05               	subwf	(??_isdigit+2)^0,w,c
  3576  002682  A0D8               	btfss	status,0,c
  3577  002684  EF46  F013         	goto	u1891
  3578  002688  EF49  F013         	goto	u1890
  3579  00268C                     u1891:
  3580  00268C  0E01               	movlw	1
  3581  00268E  EF4A  F013         	goto	u1900
  3582  002692                     u1890:
  3583  002692  0E00               	movlw	0
  3584  002694                     u1900:
  3585  002694  6E01               	movwf	?_isdigit^0,c
  3586  002696  6A02               	clrf	(?_isdigit+1)^0,c
  3587  002698  0012               	return		;funcret
  3588  00269A                     __end_of_isdigit:
  3589                           	callstack 0
  3590                           
  3591 ;; *************** function ___wmul *****************
  3592 ;; Defined at:
  3593 ;;		line 15 in file "C:\Program Files\Microchip\xc8\v2.36\pic\sources\c99\common\Umul16.c"
  3594 ;; Parameters:    Size  Location     Type
  3595 ;;  multiplier      2    0[COMRAM] unsigned int 
  3596 ;;  multiplicand    2    2[COMRAM] unsigned int 
  3597 ;; Auto vars:     Size  Location     Type
  3598 ;;  product         2    4[COMRAM] unsigned int 
  3599 ;; Return value:  Size  Location     Type
  3600 ;;                  2    0[COMRAM] unsigned int 
  3601 ;; Registers used:
  3602 ;;		wreg, status,2, status,0, prodl, prodh
  3603 ;; Tracked objects:
  3604 ;;		On entry : 0/0
  3605 ;;		On exit  : 0/0
  3606 ;;		Unchanged: 0/0
  3607 ;; Data sizes:     COMRAM   BANK0   BANK1   BANK2   BANK3   BANK4   BANK5   BANK6   BANK7
  3608 ;;      Params:         4       0       0       0       0       0       0       0       0
  3609 ;;      Locals:         2       0       0       0       0       0       0       0       0
  3610 ;;      Temps:          0       0       0       0       0       0       0       0       0
  3611 ;;      Totals:         6       0       0       0       0       0       0       0       0
  3612 ;;Total ram usage:        6 bytes
  3613 ;; Hardware stack levels used: 1
  3614 ;; This function calls:
  3615 ;;		Nothing
  3616 ;; This function is called by:
  3617 ;;		_atoi
  3618 ;; This function uses a non-reentrant model
  3619 ;;
  3620                           
  3621                           	psect	text19
  3622  002772                     __ptext19:
  3623                           	callstack 0
  3624  002772                     ___wmul:
  3625                           	callstack 24
  3626  002772  5001               	movf	___wmul@multiplier^0,w,c
  3627  002774  0203               	mulwf	___wmul@multiplicand^0,c
  3628  002776  CFF3 F005          	movff	prodl,___wmul@product
  3629  00277A  CFF4 F006          	movff	prodh,___wmul@product+1
  3630  00277E  5001               	movf	___wmul@multiplier^0,w,c
  3631  002780  0204               	mulwf	(___wmul@multiplicand+1)^0,c
  3632  002782  50F3               	movf	243,w,c
  3633  002784  2606               	addwf	(___wmul@product+1)^0,f,c
  3634  002786  5002               	movf	(___wmul@multiplier+1)^0,w,c
  3635  002788  0203               	mulwf	___wmul@multiplicand^0,c
  3636  00278A  50F3               	movf	243,w,c
  3637  00278C  2606               	addwf	(___wmul@product+1)^0,f,c
  3638  00278E  C005  F001         	movff	___wmul@product,?___wmul
  3639  002792  C006  F002         	movff	___wmul@product+1,?___wmul+1
  3640  002796  0012               	return		;funcret
  3641  002798                     __end_of___wmul:
  3642                           	callstack 0
  3643                           
  3644 ;; *************** function _lcd_putc *****************
  3645 ;; Defined at:
  3646 ;;		line 216 in file "./LCD_16x2_Library.h"
  3647 ;; Parameters:    Size  Location     Type
  3648 ;;  a               2    4[COMRAM] PTR unsigned char 
  3649 ;;		 -> LCD_Buffer(32), STR_5(19), 
  3650 ;; Auto vars:     Size  Location     Type
  3651 ;;  i               2    8[COMRAM] int 
  3652 ;; Return value:  Size  Location     Type
  3653 ;;                  1    wreg      void 
  3654 ;; Registers used:
  3655 ;;		wreg, fsr1l, fsr1h, status,2, status,0, tblptrl, tblptrh, tblptru, cstack
  3656 ;; Tracked objects:
  3657 ;;		On entry : 0/0
  3658 ;;		On exit  : 0/0
  3659 ;;		Unchanged: 0/0
  3660 ;; Data sizes:     COMRAM   BANK0   BANK1   BANK2   BANK3   BANK4   BANK5   BANK6   BANK7
  3661 ;;      Params:         2       0       0       0       0       0       0       0       0
  3662 ;;      Locals:         2       0       0       0       0       0       0       0       0
  3663 ;;      Temps:          2       0       0       0       0       0       0       0       0
  3664 ;;      Totals:         6       0       0       0       0       0       0       0       0
  3665 ;;Total ram usage:        6 bytes
  3666 ;; Hardware stack levels used: 1
  3667 ;; Hardware stack levels required when called: 2
  3668 ;; This function calls:
  3669 ;;		_lcd_write_char
  3670 ;; This function is called by:
  3671 ;;		_llamar_ultrasonico
  3672 ;; This function uses a non-reentrant model
  3673 ;;
  3674                           
  3675                           	psect	text20
  3676  0021E6                     __ptext20:
  3677                           	callstack 0
  3678  0021E6                     _lcd_putc:
  3679                           	callstack 26
  3680  0021E6                     
  3681                           ;./LCD_16x2_Library.h: 216: void lcd_putc(char *a);./LCD_16x2_Library.h: 217: {;./LCD_16
      +                          x2_Library.h: 218:    int i;;./LCD_16x2_Library.h: 219:    for(i=0;a[i]!='\0';i++)
  3682  0021E6  0E00               	movlw	0
  3683  0021E8  6E0A               	movwf	(lcd_putc@i+1)^0,c
  3684  0021EA  0E00               	movlw	0
  3685  0021EC  6E09               	movwf	lcd_putc@i^0,c
  3686  0021EE  EF13  F011         	goto	l2660
  3687  0021F2                     l2656:
  3688                           
  3689                           ;./LCD_16x2_Library.h: 220:       lcd_write_char(a[i]);
  3690  0021F2  5009               	movf	lcd_putc@i^0,w,c
  3691  0021F4  2405               	addwf	lcd_putc@a^0,w,c
  3692  0021F6  6E07               	movwf	??_lcd_putc^0,c
  3693  0021F8  500A               	movf	(lcd_putc@i+1)^0,w,c
  3694  0021FA  2006               	addwfc	(lcd_putc@a+1)^0,w,c
  3695  0021FC  6E08               	movwf	(??_lcd_putc+1)^0,c
  3696  0021FE  C007  FFF6         	movff	??_lcd_putc,tblptrl
  3697  002202  C008  FFF7         	movff	??_lcd_putc+1,tblptrh
  3698  002206  6AF8               	clrf	tblptru,c
  3699  002208  0E07               	movlw	(high __ramtop+-1)
  3700  00220A  64F7               	cpfsgt	tblptrh,c
  3701  00220C  D003               	bra	u2337
  3702  00220E  0008               	tblrd		*
  3703  002210  50F5               	movf	tablat,w,c
  3704  002212  D005               	bra	u2330
  3705  002214                     u2337:
  3706  002214  CFF6 FFE1          	movff	tblptrl,fsr1l
  3707  002218  CFF7 FFE2          	movff	tblptrh,fsr1h
  3708  00221C  50E7               	movf	indf1,w,c
  3709  00221E                     u2330:
  3710  00221E  EC4D  F013         	call	_lcd_write_char
  3711  002222  4A09               	infsnz	lcd_putc@i^0,f,c
  3712  002224  2A0A               	incf	(lcd_putc@i+1)^0,f,c
  3713  002226                     l2660:
  3714  002226  5009               	movf	lcd_putc@i^0,w,c
  3715  002228  2405               	addwf	lcd_putc@a^0,w,c
  3716  00222A  6E07               	movwf	??_lcd_putc^0,c
  3717  00222C  500A               	movf	(lcd_putc@i+1)^0,w,c
  3718  00222E  2006               	addwfc	(lcd_putc@a+1)^0,w,c
  3719  002230  6E08               	movwf	(??_lcd_putc+1)^0,c
  3720  002232  C007  FFF6         	movff	??_lcd_putc,tblptrl
  3721  002236  C008  FFF7         	movff	??_lcd_putc+1,tblptrh
  3722  00223A  6AF8               	clrf	tblptru,c
  3723  00223C  0E07               	movlw	(high __ramtop+-1)
  3724  00223E  64F7               	cpfsgt	tblptrh,c
  3725  002240  D003               	bra	u2347
  3726  002242  0008               	tblrd		*
  3727  002244  50F5               	movf	tablat,w,c
  3728  002246  D005               	bra	u2340
  3729  002248                     u2347:
  3730  002248  CFF6 FFE1          	movff	tblptrl,fsr1l
  3731  00224C  CFF7 FFE2          	movff	tblptrh,fsr1h
  3732  002250  50E7               	movf	indf1,w,c
  3733  002252                     u2340:
  3734  002252  0900               	iorlw	0
  3735  002254  A4D8               	btfss	status,2,c
  3736  002256  EF2F  F011         	goto	u2351
  3737  00225A  EF31  F011         	goto	u2350
  3738  00225E                     u2351:
  3739  00225E  EFF9  F010         	goto	l2656
  3740  002262                     u2350:
  3741  002262  0012               	return		;funcret
  3742  002264                     __end_of_lcd_putc:
  3743                           	callstack 0
  3744                           
  3745 ;; *************** function _lcd_write_char *****************
  3746 ;; Defined at:
  3747 ;;		line 188 in file "./LCD_16x2_Library.h"
  3748 ;; Parameters:    Size  Location     Type
  3749 ;;  a               1    wreg     unsigned char 
  3750 ;; Auto vars:     Size  Location     Type
  3751 ;;  a               1    3[COMRAM] unsigned char 
  3752 ;;  y               1    2[COMRAM] unsigned char 
  3753 ;;  temp            1    1[COMRAM] unsigned char 
  3754 ;; Return value:  Size  Location     Type
  3755 ;;                  1    wreg      void 
  3756 ;; Registers used:
  3757 ;;		wreg, status,2, status,0, cstack
  3758 ;; Tracked objects:
  3759 ;;		On entry : 0/0
  3760 ;;		On exit  : 0/0
  3761 ;;		Unchanged: 0/0
  3762 ;; Data sizes:     COMRAM   BANK0   BANK1   BANK2   BANK3   BANK4   BANK5   BANK6   BANK7
  3763 ;;      Params:         0       0       0       0       0       0       0       0       0
  3764 ;;      Locals:         3       0       0       0       0       0       0       0       0
  3765 ;;      Temps:          0       0       0       0       0       0       0       0       0
  3766 ;;      Totals:         3       0       0       0       0       0       0       0       0
  3767 ;;Total ram usage:        3 bytes
  3768 ;; Hardware stack levels used: 1
  3769 ;; Hardware stack levels required when called: 1
  3770 ;; This function calls:
  3771 ;;		_Lcd_Port
  3772 ;; This function is called by:
  3773 ;;		_lcd_putc
  3774 ;; This function uses a non-reentrant model
  3775 ;;
  3776                           
  3777                           	psect	text21
  3778  00269A                     __ptext21:
  3779                           	callstack 0
  3780  00269A                     _lcd_write_char:
  3781                           	callstack 26
  3782                           
  3783                           ;incstack = 0
  3784                           ;lcd_write_char@a stored from wreg
  3785  00269A  6E04               	movwf	lcd_write_char@a^0,c
  3786  00269C                     
  3787                           ;./LCD_16x2_Library.h: 188: void lcd_write_char(char a);./LCD_16x2_Library.h: 189: {;./L
      +                          CD_16x2_Library.h: 190:    char temp,y;;./LCD_16x2_Library.h: 191:    temp = a&0x0F;
  3788  00269C  5004               	movf	lcd_write_char@a^0,w,c
  3789  00269E  0B0F               	andlw	15
  3790  0026A0  6E02               	movwf	lcd_write_char@temp^0,c
  3791                           
  3792                           ;./LCD_16x2_Library.h: 192:    y = a&0xF0;
  3793  0026A2  5004               	movf	lcd_write_char@a^0,w,c
  3794  0026A4  0BF0               	andlw	240
  3795  0026A6  6E03               	movwf	lcd_write_char@y^0,c
  3796  0026A8                     
  3797                           ;./LCD_16x2_Library.h: 193:    RB2 = 1;
  3798  0026A8  8481               	bsf	3969,2,c	;volatile
  3799  0026AA                     
  3800                           ;./LCD_16x2_Library.h: 194:    Lcd_Port(y>>4);
  3801  0026AA  3803               	swapf	lcd_write_char@y^0,w,c
  3802  0026AC  0B0F               	andlw	15
  3803  0026AE  EC42  F012         	call	_Lcd_Port
  3804  0026B2                     
  3805                           ;./LCD_16x2_Library.h: 195:    RB3 = 1;
  3806  0026B2  8681               	bsf	3969,3,c	;volatile
  3807  0026B4                     
  3808                           ;./LCD_16x2_Library.h: 196:    _delay((unsigned long)((40)*(8000000/4000000.0)));
  3809  0026B4  0E1A               	movlw	26
  3810  0026B6                     u3327:
  3811  0026B6  2EE8               	decfsz	wreg,f,c
  3812  0026B8  D7FE               	bra	u3327
  3813  0026BA  D000               	nop2	
  3814  0026BC                     
  3815                           ;./LCD_16x2_Library.h: 197:    RB3 = 0;
  3816  0026BC  9681               	bcf	3969,3,c	;volatile
  3817  0026BE                     
  3818                           ;./LCD_16x2_Library.h: 198:    Lcd_Port(temp);
  3819  0026BE  5002               	movf	lcd_write_char@temp^0,w,c
  3820  0026C0  EC42  F012         	call	_Lcd_Port
  3821  0026C4                     
  3822                           ;./LCD_16x2_Library.h: 199:    RB3 = 1;
  3823  0026C4  8681               	bsf	3969,3,c	;volatile
  3824  0026C6                     
  3825                           ;./LCD_16x2_Library.h: 200:    _delay((unsigned long)((40)*(8000000/4000000.0)));
  3826  0026C6  0E1A               	movlw	26
  3827  0026C8                     u3337:
  3828  0026C8  2EE8               	decfsz	wreg,f,c
  3829  0026CA  D7FE               	bra	u3337
  3830  0026CC  D000               	nop2	
  3831  0026CE                     
  3832                           ;./LCD_16x2_Library.h: 201:    RB3 = 0;
  3833  0026CE  9681               	bcf	3969,3,c	;volatile
  3834  0026D0  0012               	return		;funcret
  3835  0026D2                     __end_of_lcd_write_char:
  3836                           	callstack 0
  3837                           
  3838 ;; *************** function _lcd_gotoxy *****************
  3839 ;; Defined at:
  3840 ;;		line 124 in file "./LCD_16x2_Library.h"
  3841 ;; Parameters:    Size  Location     Type
  3842 ;;  a               1    wreg     unsigned char 
  3843 ;;  b               1    3[COMRAM] unsigned char 
  3844 ;; Auto vars:     Size  Location     Type
  3845 ;;  a               1    4[COMRAM] unsigned char 
  3846 ;;  temp            1    7[COMRAM] unsigned char 
  3847 ;;  y               1    6[COMRAM] unsigned char 
  3848 ;;  z               1    5[COMRAM] unsigned char 
  3849 ;; Return value:  Size  Location     Type
  3850 ;;                  1    wreg      void 
  3851 ;; Registers used:
  3852 ;;		wreg, status,2, status,0, cstack
  3853 ;; Tracked objects:
  3854 ;;		On entry : 0/0
  3855 ;;		On exit  : 0/0
  3856 ;;		Unchanged: 0/0
  3857 ;; Data sizes:     COMRAM   BANK0   BANK1   BANK2   BANK3   BANK4   BANK5   BANK6   BANK7
  3858 ;;      Params:         1       0       0       0       0       0       0       0       0
  3859 ;;      Locals:         4       0       0       0       0       0       0       0       0
  3860 ;;      Temps:          0       0       0       0       0       0       0       0       0
  3861 ;;      Totals:         5       0       0       0       0       0       0       0       0
  3862 ;;Total ram usage:        5 bytes
  3863 ;; Hardware stack levels used: 1
  3864 ;; Hardware stack levels required when called: 2
  3865 ;; This function calls:
  3866 ;;		_Lcd_Cmd
  3867 ;; This function is called by:
  3868 ;;		_llamar_ultrasonico
  3869 ;; This function uses a non-reentrant model
  3870 ;;
  3871                           
  3872                           	psect	text22
  3873  0023BC                     __ptext22:
  3874                           	callstack 0
  3875  0023BC                     _lcd_gotoxy:
  3876                           	callstack 26
  3877                           
  3878                           ;incstack = 0
  3879                           ;lcd_gotoxy@a stored from wreg
  3880  0023BC  6E05               	movwf	lcd_gotoxy@a^0,c
  3881  0023BE                     
  3882                           ;./LCD_16x2_Library.h: 124: void lcd_gotoxy(char a, char b);./LCD_16x2_Library.h: 125: {
      +                          ;./LCD_16x2_Library.h: 126:    char temp,z,y;;./LCD_16x2_Library.h: 127:    if(a == 1)
  3883  0023BE  0405               	decf	lcd_gotoxy@a^0,w,c
  3884  0023C0  A4D8               	btfss	status,2,c
  3885  0023C2  EFE5  F011         	goto	u2311
  3886  0023C6  EFE7  F011         	goto	u2310
  3887  0023CA                     u2311:
  3888  0023CA  EFF8  F011         	goto	l2646
  3889  0023CE                     u2310:
  3890  0023CE                     
  3891                           ;./LCD_16x2_Library.h: 128:    {;./LCD_16x2_Library.h: 129:      temp = 0x80 + b - 1;
  3892  0023CE  5004               	movf	lcd_gotoxy@b^0,w,c
  3893  0023D0  0F7F               	addlw	127
  3894  0023D2  6E08               	movwf	lcd_gotoxy@temp^0,c
  3895                           
  3896                           ;./LCD_16x2_Library.h: 130:       z = temp>>4;
  3897  0023D4  3808               	swapf	lcd_gotoxy@temp^0,w,c
  3898  0023D6  0B0F               	andlw	15
  3899  0023D8  6E06               	movwf	lcd_gotoxy@z^0,c
  3900                           
  3901                           ;./LCD_16x2_Library.h: 131:       y = temp & 0x0F;
  3902  0023DA  5008               	movf	lcd_gotoxy@temp^0,w,c
  3903  0023DC  0B0F               	andlw	15
  3904  0023DE  6E07               	movwf	lcd_gotoxy@y^0,c
  3905  0023E0                     
  3906                           ;./LCD_16x2_Library.h: 132:       Lcd_Cmd(z);
  3907  0023E0  5006               	movf	lcd_gotoxy@z^0,w,c
  3908  0023E2  ECCC  F013         	call	_Lcd_Cmd
  3909  0023E6                     
  3910                           ;./LCD_16x2_Library.h: 133:       Lcd_Cmd(y);
  3911  0023E6  5007               	movf	lcd_gotoxy@y^0,w,c
  3912  0023E8  ECCC  F013         	call	_Lcd_Cmd
  3913                           
  3914                           ;./LCD_16x2_Library.h: 134:    }
  3915  0023EC  EF10  F012         	goto	l141
  3916  0023F0                     l2646:
  3917  0023F0  0E02               	movlw	2
  3918  0023F2  1805               	xorwf	lcd_gotoxy@a^0,w,c
  3919  0023F4  A4D8               	btfss	status,2,c
  3920  0023F6  EFFF  F011         	goto	u2321
  3921  0023FA  EF01  F012         	goto	u2320
  3922  0023FE                     u2321:
  3923  0023FE  EF10  F012         	goto	l141
  3924  002402                     u2320:
  3925  002402                     
  3926                           ;./LCD_16x2_Library.h: 136:    {;./LCD_16x2_Library.h: 137:       temp = 0xC0 + b - 1;
  3927  002402  5004               	movf	lcd_gotoxy@b^0,w,c
  3928  002404  0FBF               	addlw	191
  3929  002406  6E08               	movwf	lcd_gotoxy@temp^0,c
  3930                           
  3931                           ;./LCD_16x2_Library.h: 138:       z = temp>>4;
  3932  002408  3808               	swapf	lcd_gotoxy@temp^0,w,c
  3933  00240A  0B0F               	andlw	15
  3934  00240C  6E06               	movwf	lcd_gotoxy@z^0,c
  3935                           
  3936                           ;./LCD_16x2_Library.h: 139:       y = temp & 0x0F;
  3937  00240E  5008               	movf	lcd_gotoxy@temp^0,w,c
  3938  002410  0B0F               	andlw	15
  3939  002412  6E07               	movwf	lcd_gotoxy@y^0,c
  3940  002414                     
  3941                           ;./LCD_16x2_Library.h: 140:       Lcd_Cmd(z);
  3942  002414  5006               	movf	lcd_gotoxy@z^0,w,c
  3943  002416  ECCC  F013         	call	_Lcd_Cmd
  3944  00241A                     
  3945                           ;./LCD_16x2_Library.h: 141:       Lcd_Cmd(y);
  3946  00241A  5007               	movf	lcd_gotoxy@y^0,w,c
  3947  00241C  ECCC  F013         	call	_Lcd_Cmd
  3948  002420                     l141:
  3949  002420  0012               	return		;funcret
  3950  002422                     __end_of_lcd_gotoxy:
  3951                           	callstack 0
  3952                           
  3953 ;; *************** function _Lcd_Cmd *****************
  3954 ;; Defined at:
  3955 ;;		line 84 in file "./LCD_16x2_Library.h"
  3956 ;; Parameters:    Size  Location     Type
  3957 ;;  a               1    wreg     unsigned char 
  3958 ;; Auto vars:     Size  Location     Type
  3959 ;;  a               1    2[COMRAM] unsigned char 
  3960 ;; Return value:  Size  Location     Type
  3961 ;;                  1    wreg      void 
  3962 ;; Registers used:
  3963 ;;		wreg, status,2, cstack
  3964 ;; Tracked objects:
  3965 ;;		On entry : 0/0
  3966 ;;		On exit  : 0/0
  3967 ;;		Unchanged: 0/0
  3968 ;; Data sizes:     COMRAM   BANK0   BANK1   BANK2   BANK3   BANK4   BANK5   BANK6   BANK7
  3969 ;;      Params:         0       0       0       0       0       0       0       0       0
  3970 ;;      Locals:         1       0       0       0       0       0       0       0       0
  3971 ;;      Temps:          1       0       0       0       0       0       0       0       0
  3972 ;;      Totals:         2       0       0       0       0       0       0       0       0
  3973 ;;Total ram usage:        2 bytes
  3974 ;; Hardware stack levels used: 1
  3975 ;; Hardware stack levels required when called: 1
  3976 ;; This function calls:
  3977 ;;		_Lcd_Port
  3978 ;; This function is called by:
  3979 ;;		_lcd_gotoxy
  3980 ;;		_lcd_init
  3981 ;;		_lcd_clear
  3982 ;;		_lcd_shift_right
  3983 ;;		_lcd_shift_left
  3984 ;; This function uses a non-reentrant model
  3985 ;;
  3986                           
  3987                           	psect	text23
  3988  002798                     __ptext23:
  3989                           	callstack 0
  3990  002798                     _Lcd_Cmd:
  3991                           	callstack 28
  3992                           
  3993                           ;incstack = 0
  3994                           ;Lcd_Cmd@a stored from wreg
  3995  002798  6E03               	movwf	Lcd_Cmd@a^0,c
  3996  00279A                     
  3997                           ;./LCD_16x2_Library.h: 84: void Lcd_Cmd(char a);./LCD_16x2_Library.h: 85: {;./LCD_16x2_L
      +                          ibrary.h: 86:    RB2 = 0;
  3998  00279A  9481               	bcf	3969,2,c	;volatile
  3999  00279C                     
  4000                           ;./LCD_16x2_Library.h: 87:    Lcd_Port(a);
  4001  00279C  5003               	movf	Lcd_Cmd@a^0,w,c
  4002  00279E  EC42  F012         	call	_Lcd_Port
  4003  0027A2                     
  4004                           ;./LCD_16x2_Library.h: 88:    RB3 = 1;
  4005  0027A2  8681               	bsf	3969,3,c	;volatile
  4006  0027A4                     
  4007                           ;./LCD_16x2_Library.h: 89:         _delay((unsigned long)((4)*(8000000/4000.0)));
  4008  0027A4  0E0B               	movlw	11
  4009  0027A6  6E02               	movwf	??_Lcd_Cmd^0,c
  4010  0027A8  0E62               	movlw	98
  4011  0027AA                     u3347:
  4012  0027AA  2EE8               	decfsz	wreg,f,c
  4013  0027AC  D7FE               	bra	u3347
  4014  0027AE  2E02               	decfsz	??_Lcd_Cmd^0,f,c
  4015  0027B0  D7FC               	bra	u3347
  4016  0027B2  D000               	nop2	
  4017  0027B4                     
  4018                           ;./LCD_16x2_Library.h: 90:         RB3 = 0;
  4019  0027B4  9681               	bcf	3969,3,c	;volatile
  4020  0027B6  0012               	return		;funcret
  4021  0027B8                     __end_of_Lcd_Cmd:
  4022                           	callstack 0
  4023                           
  4024 ;; *************** function _Lcd_Port *****************
  4025 ;; Defined at:
  4026 ;;		line 49 in file "./LCD_16x2_Library.h"
  4027 ;; Parameters:    Size  Location     Type
  4028 ;;  a               1    wreg     unsigned char 
  4029 ;; Auto vars:     Size  Location     Type
  4030 ;;  a               1    0[COMRAM] unsigned char 
  4031 ;; Return value:  Size  Location     Type
  4032 ;;                  1    wreg      void 
  4033 ;; Registers used:
  4034 ;;		wreg
  4035 ;; Tracked objects:
  4036 ;;		On entry : 0/0
  4037 ;;		On exit  : 0/0
  4038 ;;		Unchanged: 0/0
  4039 ;; Data sizes:     COMRAM   BANK0   BANK1   BANK2   BANK3   BANK4   BANK5   BANK6   BANK7
  4040 ;;      Params:         0       0       0       0       0       0       0       0       0
  4041 ;;      Locals:         1       0       0       0       0       0       0       0       0
  4042 ;;      Temps:          0       0       0       0       0       0       0       0       0
  4043 ;;      Totals:         1       0       0       0       0       0       0       0       0
  4044 ;;Total ram usage:        1 bytes
  4045 ;; Hardware stack levels used: 1
  4046 ;; This function calls:
  4047 ;;		Nothing
  4048 ;; This function is called by:
  4049 ;;		_Lcd_Cmd
  4050 ;;		_lcd_init
  4051 ;;		_lcd_write_char
  4052 ;; This function uses a non-reentrant model
  4053 ;;
  4054                           
  4055                           	psect	text24
  4056  002484                     __ptext24:
  4057                           	callstack 0
  4058  002484                     _Lcd_Port:
  4059                           	callstack 29
  4060                           
  4061                           ;incstack = 0
  4062                           ;Lcd_Port@a stored from wreg
  4063  002484  6E01               	movwf	Lcd_Port@a^0,c
  4064  002486                     
  4065                           ;./LCD_16x2_Library.h: 49: void Lcd_Port(char a);./LCD_16x2_Library.h: 50: {;./LCD_16x2_
      +                          Library.h: 51:    if(a & 1)
  4066  002486  A001               	btfss	Lcd_Port@a^0,0,c
  4067  002488  EF48  F012         	goto	u2121
  4068  00248C  EF4A  F012         	goto	u2120
  4069  002490                     u2121:
  4070  002490  EF4D  F012         	goto	l121
  4071  002494                     u2120:
  4072  002494                     
  4073                           ;./LCD_16x2_Library.h: 52:       RB4 = 1;
  4074  002494  8881               	bsf	3969,4,c	;volatile
  4075  002496  EF4E  F012         	goto	l2458
  4076  00249A                     l121:
  4077                           
  4078                           ;./LCD_16x2_Library.h: 54:       RB4 = 0;
  4079  00249A  9881               	bcf	3969,4,c	;volatile
  4080  00249C                     l2458:
  4081                           
  4082                           ;./LCD_16x2_Library.h: 56:    if(a & 2)
  4083  00249C  A201               	btfss	Lcd_Port@a^0,1,c
  4084  00249E  EF53  F012         	goto	u2131
  4085  0024A2  EF55  F012         	goto	u2130
  4086  0024A6                     u2131:
  4087  0024A6  EF58  F012         	goto	l123
  4088  0024AA                     u2130:
  4089  0024AA                     
  4090                           ;./LCD_16x2_Library.h: 57:       RB5 = 1;
  4091  0024AA  8A81               	bsf	3969,5,c	;volatile
  4092  0024AC  EF59  F012         	goto	l2462
  4093  0024B0                     l123:
  4094                           
  4095                           ;./LCD_16x2_Library.h: 59:       RB5 = 0;
  4096  0024B0  9A81               	bcf	3969,5,c	;volatile
  4097  0024B2                     l2462:
  4098                           
  4099                           ;./LCD_16x2_Library.h: 61:    if(a & 4)
  4100  0024B2  A401               	btfss	Lcd_Port@a^0,2,c
  4101  0024B4  EF5E  F012         	goto	u2141
  4102  0024B8  EF60  F012         	goto	u2140
  4103  0024BC                     u2141:
  4104  0024BC  EF63  F012         	goto	l125
  4105  0024C0                     u2140:
  4106  0024C0                     
  4107                           ;./LCD_16x2_Library.h: 62:       RB6 = 1;
  4108  0024C0  8C81               	bsf	3969,6,c	;volatile
  4109  0024C2  EF64  F012         	goto	l2466
  4110  0024C6                     l125:
  4111                           
  4112                           ;./LCD_16x2_Library.h: 64:       RB6 = 0;
  4113  0024C6  9C81               	bcf	3969,6,c	;volatile
  4114  0024C8                     l2466:
  4115                           
  4116                           ;./LCD_16x2_Library.h: 66:    if(a & 8)
  4117  0024C8  A601               	btfss	Lcd_Port@a^0,3,c
  4118  0024CA  EF69  F012         	goto	u2151
  4119  0024CE  EF6B  F012         	goto	u2150
  4120  0024D2                     u2151:
  4121  0024D2  EF6E  F012         	goto	l127
  4122  0024D6                     u2150:
  4123  0024D6                     
  4124                           ;./LCD_16x2_Library.h: 67:       RB7 = 1;
  4125  0024D6  8E81               	bsf	3969,7,c	;volatile
  4126  0024D8  EF6F  F012         	goto	l129
  4127  0024DC                     l127:
  4128                           
  4129                           ;./LCD_16x2_Library.h: 69:       RB7 = 0;
  4130  0024DC  9E81               	bcf	3969,7,c	;volatile
  4131  0024DE                     l129:
  4132  0024DE  0012               	return		;funcret
  4133  0024E0                     __end_of_Lcd_Port:
  4134                           	callstack 0
  4135                           
  4136 ;; *************** function _funcion_SensorPir *****************
  4137 ;; Defined at:
  4138 ;;		line 143 in file "mainPic1.c"
  4139 ;; Parameters:    Size  Location     Type
  4140 ;;  bandera         2   17[COMRAM] int 
  4141 ;; Auto vars:     Size  Location     Type
  4142 ;;  Distancia       2   19[COMRAM] unsigned short 
  4143 ;; Return value:  Size  Location     Type
  4144 ;;                  1    wreg      void 
  4145 ;; Registers used:
  4146 ;;		wreg, status,2, status,0, tblptrl, tblptrh, tblptru, cstack
  4147 ;; Tracked objects:
  4148 ;;		On entry : 0/0
  4149 ;;		On exit  : 0/0
  4150 ;;		Unchanged: 0/0
  4151 ;; Data sizes:     COMRAM   BANK0   BANK1   BANK2   BANK3   BANK4   BANK5   BANK6   BANK7
  4152 ;;      Params:         2       0       0       0       0       0       0       0       0
  4153 ;;      Locals:         2       0       0       0       0       0       0       0       0
  4154 ;;      Temps:          0       0       0       0       0       0       0       0       0
  4155 ;;      Totals:         4       0       0       0       0       0       0       0       0
  4156 ;;Total ram usage:        4 bytes
  4157 ;; Hardware stack levels used: 1
  4158 ;; Hardware stack levels required when called: 2
  4159 ;; This function calls:
  4160 ;;		_Obtener_Distancia
  4161 ;;		_USART_SendString
  4162 ;;		_delaymsled_red_green
  4163 ;; This function is called by:
  4164 ;;		_controlSemaforo
  4165 ;; This function uses a non-reentrant model
  4166 ;;
  4167                           
  4168                           	psect	text25
  4169  002010                     __ptext25:
  4170                           	callstack 0
  4171  002010                     _funcion_SensorPir:
  4172                           	callstack 27
  4173  002010                     
  4174                           ;mainPic1.c: 144:     TRISA2 = 1;
  4175  002010  8492               	bsf	3986,2,c	;volatile
  4176                           
  4177                           ;mainPic1.c: 145:     LATD3 = 0;
  4178  002012  968C               	bcf	3980,3,c	;volatile
  4179                           
  4180                           ;mainPic1.c: 146:     uint16_t Distancia;;mainPic1.c: 148:     if(PORTAbits.RA2 == 1 && 
      +                          PORTDbits.RD2 == 1){
  4181  002014  A480               	btfss	128,2,c	;volatile
  4182  002016  EF0F  F010         	goto	u2391
  4183  00201A  EF11  F010         	goto	u2390
  4184  00201E                     u2391:
  4185  00201E  EF45  F010         	goto	l178
  4186  002022                     u2390:
  4187  002022  A483               	btfss	131,2,c	;volatile
  4188  002024  EF16  F010         	goto	u2401
  4189  002028  EF18  F010         	goto	u2400
  4190  00202C                     u2401:
  4191  00202C  EF45  F010         	goto	l178
  4192  002030                     u2400:
  4193  002030                     
  4194                           ;mainPic1.c: 149:         LATD3 = 1;
  4195  002030  868C               	bsf	3980,3,c	;volatile
  4196  002032                     
  4197                           ;mainPic1.c: 150:         Distancia = Obtener_Distancia();
  4198  002032  ECAA  F010         	call	_Obtener_Distancia	;wreg free
  4199  002036  C008  F014         	movff	?_Obtener_Distancia,funcion_SensorPir@Distancia
  4200  00203A  C009  F015         	movff	?_Obtener_Distancia+1,funcion_SensorPir@Distancia+1
  4201  00203E                     
  4202                           ;mainPic1.c: 152:         if(Distancia >= 40 && Distancia <= 380){
  4203  00203E  5015               	movf	(funcion_SensorPir@Distancia+1)^0,w,c
  4204  002040  E109               	bnz	u2410
  4205  002042  0E28               	movlw	40
  4206  002044  5C14               	subwf	funcion_SensorPir@Distancia^0,w,c
  4207  002046  A0D8               	btfss	status,0,c
  4208  002048  EF28  F010         	goto	u2411
  4209  00204C  EF2A  F010         	goto	u2410
  4210  002050                     u2411:
  4211  002050  EF3B  F010         	goto	l2722
  4212  002054                     u2410:
  4213  002054  0E7D               	movlw	125
  4214  002056  5C14               	subwf	funcion_SensorPir@Distancia^0,w,c
  4215  002058  0E01               	movlw	1
  4216  00205A  5815               	subwfb	(funcion_SensorPir@Distancia+1)^0,w,c
  4217  00205C  B0D8               	btfsc	status,0,c
  4218  00205E  EF33  F010         	goto	u2421
  4219  002062  EF35  F010         	goto	u2420
  4220  002066                     u2421:
  4221  002066  EF3B  F010         	goto	l2722
  4222  00206A                     u2420:
  4223  00206A                     
  4224                           ;mainPic1.c: 153:             USART_SendString("U");
  4225  00206A  0E2C               	movlw	low STR_4
  4226  00206C  6E02               	movwf	USART_SendString@out^0,c
  4227  00206E  0E08               	movlw	high STR_4
  4228  002070  6E03               	movwf	(USART_SendString@out+1)^0,c
  4229  002072  EC84  F013         	call	_USART_SendString	;wreg free
  4230  002076                     l2722:
  4231                           
  4232                           ;mainPic1.c: 155:         delaymsled_red_green();
  4233  002076  EC70  F012         	call	_delaymsled_red_green	;wreg free
  4234  00207A                     
  4235                           ;mainPic1.c: 157:         LATD3 = 0;
  4236  00207A  968C               	bcf	3980,3,c	;volatile
  4237  00207C                     
  4238                           ;mainPic1.c: 158:         LATD2 = 0;
  4239  00207C  948C               	bcf	3980,2,c	;volatile
  4240  00207E                     
  4241                           ;mainPic1.c: 159:         bandera = 2;
  4242  00207E  0E00               	movlw	0
  4243  002080  6E13               	movwf	(funcion_SensorPir@bandera+1)^0,c
  4244  002082  0E02               	movlw	2
  4245  002084  6E12               	movwf	funcion_SensorPir@bandera^0,c
  4246                           
  4247                           ;mainPic1.c: 160:     }else{
  4248  002086  EF46  F010         	goto	l2730
  4249  00208A                     l178:
  4250                           
  4251                           ;mainPic1.c: 161:         LATD3 = 0;
  4252  00208A  968C               	bcf	3980,3,c	;volatile
  4253  00208C                     l2730:
  4254                           
  4255                           ;mainPic1.c: 163:     if(bandera == 0){
  4256  00208C  5012               	movf	funcion_SensorPir@bandera^0,w,c
  4257  00208E  1013               	iorwf	(funcion_SensorPir@bandera+1)^0,w,c
  4258  002090  A4D8               	btfss	status,2,c
  4259  002092  EF4D  F010         	goto	u2431
  4260  002096  EF4F  F010         	goto	u2430
  4261  00209A                     u2431:
  4262  00209A  EF52  F010         	goto	l2734
  4263  00209E                     u2430:
  4264  00209E                     
  4265                           ;mainPic1.c: 164:         LATD2 = 1;
  4266  00209E  848C               	bsf	3980,2,c	;volatile
  4267                           
  4268                           ;mainPic1.c: 165:     }else if(bandera != 2){
  4269  0020A0  EF5F  F010         	goto	l184
  4270  0020A4                     l2734:
  4271  0020A4  0E02               	movlw	2
  4272  0020A6  1812               	xorwf	funcion_SensorPir@bandera^0,w,c
  4273  0020A8  1013               	iorwf	(funcion_SensorPir@bandera+1)^0,w,c
  4274  0020AA  B4D8               	btfsc	status,2,c
  4275  0020AC  EF5A  F010         	goto	u2441
  4276  0020B0  EF5C  F010         	goto	u2440
  4277  0020B4                     u2441:
  4278  0020B4  EF5F  F010         	goto	l184
  4279  0020B8                     u2440:
  4280  0020B8                     
  4281                           ;mainPic1.c: 166:         LATD2 = 1;
  4282  0020B8  848C               	bsf	3980,2,c	;volatile
  4283  0020BA                     
  4284                           ;mainPic1.c: 167:         delaymsled_red_green();
  4285  0020BA  EC70  F012         	call	_delaymsled_red_green	;wreg free
  4286  0020BE                     l184:
  4287  0020BE  0012               	return		;funcret
  4288  0020C0                     __end_of_funcion_SensorPir:
  4289                           	callstack 0
  4290                           
  4291 ;; *************** function _delaymsled_red_green *****************
  4292 ;; Defined at:
  4293 ;;		line 183 in file "mainPic1.c"
  4294 ;; Parameters:    Size  Location     Type
  4295 ;;		None
  4296 ;; Auto vars:     Size  Location     Type
  4297 ;;		None
  4298 ;; Return value:  Size  Location     Type
  4299 ;;                  1    wreg      void 
  4300 ;; Registers used:
  4301 ;;		wreg
  4302 ;; Tracked objects:
  4303 ;;		On entry : 0/0
  4304 ;;		On exit  : 0/0
  4305 ;;		Unchanged: 0/0
  4306 ;; Data sizes:     COMRAM   BANK0   BANK1   BANK2   BANK3   BANK4   BANK5   BANK6   BANK7
  4307 ;;      Params:         0       0       0       0       0       0       0       0       0
  4308 ;;      Locals:         0       0       0       0       0       0       0       0       0
  4309 ;;      Temps:          2       0       0       0       0       0       0       0       0
  4310 ;;      Totals:         2       0       0       0       0       0       0       0       0
  4311 ;;Total ram usage:        2 bytes
  4312 ;; Hardware stack levels used: 1
  4313 ;; This function calls:
  4314 ;;		Nothing
  4315 ;; This function is called by:
  4316 ;;		_controlSemaforo
  4317 ;;		_funcion_SensorPir
  4318 ;; This function uses a non-reentrant model
  4319 ;;
  4320                           
  4321                           	psect	text26
  4322  0024E0                     __ptext26:
  4323                           	callstack 0
  4324  0024E0                     _delaymsled_red_green:
  4325                           	callstack 28
  4326  0024E0                     
  4327                           ;mainPic1.c: 184:     _delay((unsigned long)((1000)*(8000000/4000.0)));
  4328  0024E0  0E0B               	movlw	11
  4329  0024E2  6E02               	movwf	(??_delaymsled_red_green+1)^0,c
  4330  0024E4  0E26               	movlw	38
  4331  0024E6  6E01               	movwf	??_delaymsled_red_green^0,c
  4332  0024E8  0E5E               	movlw	94
  4333  0024EA                     u3357:
  4334  0024EA  2EE8               	decfsz	wreg,f,c
  4335  0024EC  D7FE               	bra	u3357
  4336  0024EE  2E01               	decfsz	??_delaymsled_red_green^0,f,c
  4337  0024F0  D7FC               	bra	u3357
  4338  0024F2  2E02               	decfsz	(??_delaymsled_red_green+1)^0,f,c
  4339  0024F4  D7FA               	bra	u3357
  4340                           
  4341                           ;mainPic1.c: 185:     _delay((unsigned long)((1000)*(8000000/4000.0)));
  4342  0024F6  0E0B               	movlw	11
  4343  0024F8  6E02               	movwf	(??_delaymsled_red_green+1)^0,c
  4344  0024FA  0E26               	movlw	38
  4345  0024FC  6E01               	movwf	??_delaymsled_red_green^0,c
  4346  0024FE  0E5E               	movlw	94
  4347  002500                     u3367:
  4348  002500  2EE8               	decfsz	wreg,f,c
  4349  002502  D7FE               	bra	u3367
  4350  002504  2E01               	decfsz	??_delaymsled_red_green^0,f,c
  4351  002506  D7FC               	bra	u3367
  4352  002508  2E02               	decfsz	(??_delaymsled_red_green+1)^0,f,c
  4353  00250A  D7FA               	bra	u3367
  4354                           
  4355                           ;mainPic1.c: 186:     _delay((unsigned long)((1000)*(8000000/4000.0)));
  4356  00250C  0E0B               	movlw	11
  4357  00250E  6E02               	movwf	(??_delaymsled_red_green+1)^0,c
  4358  002510  0E26               	movlw	38
  4359  002512  6E01               	movwf	??_delaymsled_red_green^0,c
  4360  002514  0E5E               	movlw	94
  4361  002516                     u3377:
  4362  002516  2EE8               	decfsz	wreg,f,c
  4363  002518  D7FE               	bra	u3377
  4364  00251A  2E01               	decfsz	??_delaymsled_red_green^0,f,c
  4365  00251C  D7FC               	bra	u3377
  4366  00251E  2E02               	decfsz	(??_delaymsled_red_green+1)^0,f,c
  4367  002520  D7FA               	bra	u3377
  4368                           
  4369                           ;mainPic1.c: 187:     _delay((unsigned long)((1000)*(8000000/4000.0)));
  4370  002522  0E0B               	movlw	11
  4371  002524  6E02               	movwf	(??_delaymsled_red_green+1)^0,c
  4372  002526  0E26               	movlw	38
  4373  002528  6E01               	movwf	??_delaymsled_red_green^0,c
  4374  00252A  0E5E               	movlw	94
  4375  00252C                     u3387:
  4376  00252C  2EE8               	decfsz	wreg,f,c
  4377  00252E  D7FE               	bra	u3387
  4378  002530  2E01               	decfsz	??_delaymsled_red_green^0,f,c
  4379  002532  D7FC               	bra	u3387
  4380  002534  2E02               	decfsz	(??_delaymsled_red_green+1)^0,f,c
  4381  002536  D7FA               	bra	u3387
  4382  002538  0012               	return		;funcret
  4383  00253A                     __end_of_delaymsled_red_green:
  4384                           	callstack 0
  4385                           
  4386 ;; *************** function _USART_SendString *****************
  4387 ;; Defined at:
  4388 ;;		line 103 in file "USART_SOURCE_FILE.c"
  4389 ;; Parameters:    Size  Location     Type
  4390 ;;  out             2    1[COMRAM] PTR const unsigned char 
  4391 ;;		 -> STR_4(2), STR_3(2), STR_2(2), STR_1(2), 
  4392 ;; Auto vars:     Size  Location     Type
  4393 ;;		None
  4394 ;; Return value:  Size  Location     Type
  4395 ;;                  1    wreg      void 
  4396 ;; Registers used:
  4397 ;;		wreg, status,2, status,0, tblptrl, tblptrh, tblptru, cstack
  4398 ;; Tracked objects:
  4399 ;;		On entry : 0/0
  4400 ;;		On exit  : 0/0
  4401 ;;		Unchanged: 0/0
  4402 ;; Data sizes:     COMRAM   BANK0   BANK1   BANK2   BANK3   BANK4   BANK5   BANK6   BANK7
  4403 ;;      Params:         2       0       0       0       0       0       0       0       0
  4404 ;;      Locals:         0       0       0       0       0       0       0       0       0
  4405 ;;      Temps:          0       0       0       0       0       0       0       0       0
  4406 ;;      Totals:         2       0       0       0       0       0       0       0       0
  4407 ;;Total ram usage:        2 bytes
  4408 ;; Hardware stack levels used: 1
  4409 ;; Hardware stack levels required when called: 1
  4410 ;; This function calls:
  4411 ;;		_USART_TxChar
  4412 ;; This function is called by:
  4413 ;;		_controlSemaforo
  4414 ;;		_funcion_SensorPir
  4415 ;; This function uses a non-reentrant model
  4416 ;;
  4417                           
  4418                           	psect	text27
  4419  002708                     __ptext27:
  4420                           	callstack 0
  4421  002708                     _USART_SendString:
  4422                           	callstack 27
  4423  002708                     
  4424                           ;USART_SOURCE_FILE.c: 103: void USART_SendString(const char *out);USART_SOURCE_FILE.c: 1
      +                          04: {;USART_SOURCE_FILE.c: 105:    while(*out!='\0')
  4425  002708  EF90  F013         	goto	l2636
  4426  00270C                     l2632:
  4427                           
  4428                           ;USART_SOURCE_FILE.c: 106:    {;USART_SOURCE_FILE.c: 107:         USART_TxChar(*out);
  4429  00270C  C002  FFF6         	movff	USART_SendString@out,tblptrl
  4430  002710  C003  FFF7         	movff	USART_SendString@out+1,tblptrh
  4431  002714                     	if	0	;tblptru may be non-zero
  4432  002714                     	endif
  4433  002714                     	if	0	;tblptru may be non-zero
  4434  002714                     	endif
  4435  002714  0008               	tblrd		*
  4436  002716  50F5               	movf	tablat,w,c
  4437  002718  ECF3  F013         	call	_USART_TxChar
  4438  00271C                     
  4439                           ;USART_SOURCE_FILE.c: 108:         out++;
  4440  00271C  4A02               	infsnz	USART_SendString@out^0,f,c
  4441  00271E  2A03               	incf	(USART_SendString@out+1)^0,f,c
  4442  002720                     l2636:
  4443                           
  4444                           ;USART_SOURCE_FILE.c: 105:    while(*out!='\0')
  4445  002720  C002  FFF6         	movff	USART_SendString@out,tblptrl
  4446  002724  C003  FFF7         	movff	USART_SendString@out+1,tblptrh
  4447  002728                     	if	0	;tblptru may be non-zero
  4448  002728                     	endif
  4449  002728                     	if	0	;tblptru may be non-zero
  4450  002728                     	endif
  4451  002728  0008               	tblrd		*
  4452  00272A  50F5               	movf	tablat,w,c
  4453  00272C  0900               	iorlw	0
  4454  00272E  A4D8               	btfss	status,2,c
  4455  002730  EF9C  F013         	goto	u2301
  4456  002734  EF9E  F013         	goto	u2300
  4457  002738                     u2301:
  4458  002738  EF86  F013         	goto	l2632
  4459  00273C                     u2300:
  4460  00273C  0012               	return		;funcret
  4461  00273E                     __end_of_USART_SendString:
  4462                           	callstack 0
  4463                           
  4464 ;; *************** function _USART_TxChar *****************
  4465 ;; Defined at:
  4466 ;;		line 60 in file "USART_SOURCE_FILE.c"
  4467 ;; Parameters:    Size  Location     Type
  4468 ;;  out             1    wreg     unsigned char 
  4469 ;; Auto vars:     Size  Location     Type
  4470 ;;  out             1    0[COMRAM] unsigned char 
  4471 ;; Return value:  Size  Location     Type
  4472 ;;                  1    wreg      void 
  4473 ;; Registers used:
  4474 ;;		wreg
  4475 ;; Tracked objects:
  4476 ;;		On entry : 0/0
  4477 ;;		On exit  : 0/0
  4478 ;;		Unchanged: 0/0
  4479 ;; Data sizes:     COMRAM   BANK0   BANK1   BANK2   BANK3   BANK4   BANK5   BANK6   BANK7
  4480 ;;      Params:         0       0       0       0       0       0       0       0       0
  4481 ;;      Locals:         1       0       0       0       0       0       0       0       0
  4482 ;;      Temps:          0       0       0       0       0       0       0       0       0
  4483 ;;      Totals:         1       0       0       0       0       0       0       0       0
  4484 ;;Total ram usage:        1 bytes
  4485 ;; Hardware stack levels used: 1
  4486 ;; This function calls:
  4487 ;;		Nothing
  4488 ;; This function is called by:
  4489 ;;		_USART_SendString
  4490 ;; This function uses a non-reentrant model
  4491 ;;
  4492                           
  4493                           	psect	text28
  4494  0027E6                     __ptext28:
  4495                           	callstack 0
  4496  0027E6                     _USART_TxChar:
  4497                           	callstack 27
  4498                           
  4499                           ;incstack = 0
  4500                           ;USART_TxChar@out stored from wreg
  4501  0027E6  6E01               	movwf	USART_TxChar@out^0,c
  4502  0027E8                     l30:
  4503  0027E8  A89E               	btfss	3998,4,c	;volatile
  4504  0027EA  EFF9  F013         	goto	u2251
  4505  0027EE  EFFB  F013         	goto	u2250
  4506  0027F2                     u2251:
  4507  0027F2  EFF4  F013         	goto	l30
  4508  0027F6                     u2250:
  4509  0027F6                     
  4510                           ;USART_SOURCE_FILE.c: 63:         TXREG=out;
  4511  0027F6  C001  FFAD         	movff	USART_TxChar@out,4013	;volatile
  4512  0027FA  0012               	return		;funcret
  4513  0027FC                     __end_of_USART_TxChar:
  4514                           	callstack 0
  4515                           
  4516 ;; *************** function _Obtener_Distancia *****************
  4517 ;; Defined at:
  4518 ;;		line 282 in file "mainPic1.c"
  4519 ;; Parameters:    Size  Location     Type
  4520 ;;		None
  4521 ;; Auto vars:     Size  Location     Type
  4522 ;;  Duracion        2   15[COMRAM] unsigned short 
  4523 ;;  Distancia       2   13[COMRAM] unsigned short 
  4524 ;;  Timer_1         2   11[COMRAM] unsigned short 
  4525 ;; Return value:  Size  Location     Type
  4526 ;;                  2    7[COMRAM] unsigned short 
  4527 ;; Registers used:
  4528 ;;		wreg, status,2, status,0, cstack
  4529 ;; Tracked objects:
  4530 ;;		On entry : 0/0
  4531 ;;		On exit  : 0/0
  4532 ;;		Unchanged: 0/0
  4533 ;; Data sizes:     COMRAM   BANK0   BANK1   BANK2   BANK3   BANK4   BANK5   BANK6   BANK7
  4534 ;;      Params:         2       0       0       0       0       0       0       0       0
  4535 ;;      Locals:         6       0       0       0       0       0       0       0       0
  4536 ;;      Temps:          2       0       0       0       0       0       0       0       0
  4537 ;;      Totals:        10       0       0       0       0       0       0       0       0
  4538 ;;Total ram usage:       10 bytes
  4539 ;; Hardware stack levels used: 1
  4540 ;; Hardware stack levels required when called: 1
  4541 ;; This function calls:
  4542 ;;		___lwdiv
  4543 ;; This function is called by:
  4544 ;;		_funcion_SensorPir
  4545 ;;		_llamar_ultrasonico
  4546 ;; This function uses a non-reentrant model
  4547 ;;
  4548                           
  4549                           	psect	text29
  4550  002154                     __ptext29:
  4551                           	callstack 0
  4552  002154                     _Obtener_Distancia:
  4553                           	callstack 27
  4554  002154                     
  4555                           ;mainPic1.c: 284:     uint16_t Duracion;;mainPic1.c: 285:     uint16_t Distancia;;mainPi
      +                          c1.c: 286:     uint16_t Timer_1;;mainPic1.c: 288:     LATAbits.LATA0=1;
  4556  002154  8089               	bsf	137,0,c	;volatile
  4557  002156                     
  4558                           ;mainPic1.c: 289:     _delay((unsigned long)((10)*(8000000/4000000.0)));
  4559  002156  0E06               	movlw	6
  4560  002158                     u3397:
  4561  002158  2EE8               	decfsz	wreg,f,c
  4562  00215A  D7FE               	bra	u3397
  4563  00215C  D000               	nop2	
  4564  00215E                     
  4565                           ;mainPic1.c: 290:     LATAbits.LATA0 = 0;
  4566  00215E  9089               	bcf	137,0,c	;volatile
  4567  002160                     l202:
  4568  002160  A280               	btfss	128,1,c	;volatile
  4569  002162  EFB5  F010         	goto	u2361
  4570  002166  EFB7  F010         	goto	u2360
  4571  00216A                     u2361:
  4572  00216A  EFB0  F010         	goto	l202
  4573  00216E                     u2360:
  4574  00216E                     
  4575                           ;mainPic1.c: 292:     T1CONbits.TMR1ON = 1;
  4576  00216E  80CD               	bsf	205,0,c	;volatile
  4577  002170                     l205:
  4578  002170  B280               	btfsc	128,1,c	;volatile
  4579  002172  EFBD  F010         	goto	u2371
  4580  002176  EFBF  F010         	goto	u2370
  4581  00217A                     u2371:
  4582  00217A  EFB8  F010         	goto	l205
  4583  00217E                     u2370:
  4584  00217E                     
  4585                           ;mainPic1.c: 294:     T1CONbits.TMR1ON = 0;
  4586  00217E  90CD               	bcf	205,0,c	;volatile
  4587                           
  4588                           ;mainPic1.c: 295:     Timer_1 = TMR1;
  4589  002180  CFCE F00C          	movff	4046,Obtener_Distancia@Timer_1	;volatile
  4590  002184  CFCF F00D          	movff	4047,Obtener_Distancia@Timer_1+1	;volatile
  4591  002188                     
  4592                           ;mainPic1.c: 296:     Duracion = Timer_1/2;
  4593  002188  90D8               	bcf	status,0,c
  4594  00218A  300D               	rrcf	(Obtener_Distancia@Timer_1+1)^0,w,c
  4595  00218C  6E0A               	movwf	??_Obtener_Distancia^0,c
  4596  00218E  300C               	rrcf	Obtener_Distancia@Timer_1^0,w,c
  4597  002190  6E10               	movwf	Obtener_Distancia@Duracion^0,c
  4598  002192  C00A  F011         	movff	??_Obtener_Distancia,Obtener_Distancia@Duracion+1
  4599                           
  4600                           ;mainPic1.c: 297:     if(Duracion <= 23200)
  4601  002196  0EA1               	movlw	161
  4602  002198  5C10               	subwf	Obtener_Distancia@Duracion^0,w,c
  4603  00219A  0E5A               	movlw	90
  4604  00219C  5811               	subwfb	(Obtener_Distancia@Duracion+1)^0,w,c
  4605  00219E  B0D8               	btfsc	status,0,c
  4606  0021A0  EFD4  F010         	goto	u2381
  4607  0021A4  EFD6  F010         	goto	u2380
  4608  0021A8                     u2381:
  4609  0021A8  EFE6  F010         	goto	l2674
  4610  0021AC                     u2380:
  4611  0021AC                     
  4612                           ;mainPic1.c: 298:     {;mainPic1.c: 299:         Distancia = Duracion/58;
  4613  0021AC  C010  F001         	movff	Obtener_Distancia@Duracion,___lwdiv@dividend
  4614  0021B0  C011  F002         	movff	Obtener_Distancia@Duracion+1,___lwdiv@dividend+1
  4615  0021B4  0E00               	movlw	0
  4616  0021B6  6E04               	movwf	(___lwdiv@divisor+1)^0,c
  4617  0021B8  0E3A               	movlw	58
  4618  0021BA  6E03               	movwf	___lwdiv@divisor^0,c
  4619  0021BC  EC6C  F011         	call	___lwdiv	;wreg free
  4620  0021C0  C001  F00E         	movff	?___lwdiv,Obtener_Distancia@Distancia
  4621  0021C4  C002  F00F         	movff	?___lwdiv+1,Obtener_Distancia@Distancia+1
  4622                           
  4623                           ;mainPic1.c: 300:     }
  4624  0021C8  EFEA  F010         	goto	l209
  4625  0021CC                     l2674:
  4626  0021CC                     
  4627                           ;mainPic1.c: 302:     {;mainPic1.c: 303:         Distancia=0;
  4628  0021CC  0E00               	movlw	0
  4629  0021CE  6E0F               	movwf	(Obtener_Distancia@Distancia+1)^0,c
  4630  0021D0  0E00               	movlw	0
  4631  0021D2  6E0E               	movwf	Obtener_Distancia@Distancia^0,c
  4632  0021D4                     l209:
  4633                           
  4634                           ;mainPic1.c: 310:     TMR1=0;
  4635  0021D4  0E00               	movlw	0
  4636  0021D6  6ECF               	movwf	207,c	;volatile
  4637  0021D8  0E00               	movlw	0
  4638  0021DA  6ECE               	movwf	206,c	;volatile
  4639  0021DC                     
  4640                           ;mainPic1.c: 312:     return Distancia;
  4641  0021DC  C00E  F008         	movff	Obtener_Distancia@Distancia,?_Obtener_Distancia
  4642  0021E0  C00F  F009         	movff	Obtener_Distancia@Distancia+1,?_Obtener_Distancia+1
  4643  0021E4  0012               	return		;funcret
  4644  0021E6                     __end_of_Obtener_Distancia:
  4645                           	callstack 0
  4646                           
  4647 ;; *************** function ___lwdiv *****************
  4648 ;; Defined at:
  4649 ;;		line 7 in file "C:\Program Files\Microchip\xc8\v2.36\pic\sources\c99\common\lwdiv.c"
  4650 ;; Parameters:    Size  Location     Type
  4651 ;;  dividend        2    0[COMRAM] unsigned int 
  4652 ;;  divisor         2    2[COMRAM] unsigned int 
  4653 ;; Auto vars:     Size  Location     Type
  4654 ;;  quotient        2    4[COMRAM] unsigned int 
  4655 ;;  counter         1    6[COMRAM] unsigned char 
  4656 ;; Return value:  Size  Location     Type
  4657 ;;                  2    0[COMRAM] unsigned int 
  4658 ;; Registers used:
  4659 ;;		wreg, status,2, status,0
  4660 ;; Tracked objects:
  4661 ;;		On entry : 0/0
  4662 ;;		On exit  : 0/0
  4663 ;;		Unchanged: 0/0
  4664 ;; Data sizes:     COMRAM   BANK0   BANK1   BANK2   BANK3   BANK4   BANK5   BANK6   BANK7
  4665 ;;      Params:         4       0       0       0       0       0       0       0       0
  4666 ;;      Locals:         3       0       0       0       0       0       0       0       0
  4667 ;;      Temps:          0       0       0       0       0       0       0       0       0
  4668 ;;      Totals:         7       0       0       0       0       0       0       0       0
  4669 ;;Total ram usage:        7 bytes
  4670 ;; Hardware stack levels used: 1
  4671 ;; This function calls:
  4672 ;;		Nothing
  4673 ;; This function is called by:
  4674 ;;		_Obtener_Distancia
  4675 ;; This function uses a non-reentrant model
  4676 ;;
  4677                           
  4678                           	psect	text30
  4679  0022D8                     __ptext30:
  4680                           	callstack 0
  4681  0022D8                     ___lwdiv:
  4682                           	callstack 27
  4683  0022D8  0E00               	movlw	0
  4684  0022DA  6E06               	movwf	(___lwdiv@quotient+1)^0,c
  4685  0022DC  0E00               	movlw	0
  4686  0022DE  6E05               	movwf	___lwdiv@quotient^0,c
  4687  0022E0  5003               	movf	___lwdiv@divisor^0,w,c
  4688  0022E2  1004               	iorwf	(___lwdiv@divisor+1)^0,w,c
  4689  0022E4  B4D8               	btfsc	status,2,c
  4690  0022E6  EF77  F011         	goto	u2261
  4691  0022EA  EF79  F011         	goto	u2260
  4692  0022EE                     u2261:
  4693  0022EE  EFA1  F011         	goto	l706
  4694  0022F2                     u2260:
  4695  0022F2  0E01               	movlw	1
  4696  0022F4  6E07               	movwf	___lwdiv@counter^0,c
  4697  0022F6  EF81  F011         	goto	l2608
  4698  0022FA                     l2606:
  4699  0022FA  90D8               	bcf	status,0,c
  4700  0022FC  3603               	rlcf	___lwdiv@divisor^0,f,c
  4701  0022FE  3604               	rlcf	(___lwdiv@divisor+1)^0,f,c
  4702  002300  2A07               	incf	___lwdiv@counter^0,f,c
  4703  002302                     l2608:
  4704  002302  AE04               	btfss	(___lwdiv@divisor+1)^0,7,c
  4705  002304  EF86  F011         	goto	u2271
  4706  002308  EF88  F011         	goto	u2270
  4707  00230C                     u2271:
  4708  00230C  EF7D  F011         	goto	l2606
  4709  002310                     u2270:
  4710  002310                     l2610:
  4711  002310  90D8               	bcf	status,0,c
  4712  002312  3605               	rlcf	___lwdiv@quotient^0,f,c
  4713  002314  3606               	rlcf	(___lwdiv@quotient+1)^0,f,c
  4714  002316  5003               	movf	___lwdiv@divisor^0,w,c
  4715  002318  5C01               	subwf	___lwdiv@dividend^0,w,c
  4716  00231A  5004               	movf	(___lwdiv@divisor+1)^0,w,c
  4717  00231C  5802               	subwfb	(___lwdiv@dividend+1)^0,w,c
  4718  00231E  A0D8               	btfss	status,0,c
  4719  002320  EF94  F011         	goto	u2281
  4720  002324  EF96  F011         	goto	u2280
  4721  002328                     u2281:
  4722  002328  EF9B  F011         	goto	l2618
  4723  00232C                     u2280:
  4724  00232C  5003               	movf	___lwdiv@divisor^0,w,c
  4725  00232E  5E01               	subwf	___lwdiv@dividend^0,f,c
  4726  002330  5004               	movf	(___lwdiv@divisor+1)^0,w,c
  4727  002332  5A02               	subwfb	(___lwdiv@dividend+1)^0,f,c
  4728  002334  8005               	bsf	___lwdiv@quotient^0,0,c
  4729  002336                     l2618:
  4730  002336  90D8               	bcf	status,0,c
  4731  002338  3204               	rrcf	(___lwdiv@divisor+1)^0,f,c
  4732  00233A  3203               	rrcf	___lwdiv@divisor^0,f,c
  4733  00233C  2E07               	decfsz	___lwdiv@counter^0,f,c
  4734  00233E  EF88  F011         	goto	l2610
  4735  002342                     l706:
  4736  002342  C005  F001         	movff	___lwdiv@quotient,?___lwdiv
  4737  002346  C006  F002         	movff	___lwdiv@quotient+1,?___lwdiv+1
  4738  00234A  0012               	return		;funcret
  4739  00234C                     __end_of___lwdiv:
  4740                           	callstack 0
  4741                           
  4742 ;; *************** function _delaymsled_yellow *****************
  4743 ;; Defined at:
  4744 ;;		line 202 in file "mainPic1.c"
  4745 ;; Parameters:    Size  Location     Type
  4746 ;;		None
  4747 ;; Auto vars:     Size  Location     Type
  4748 ;;		None
  4749 ;; Return value:  Size  Location     Type
  4750 ;;                  1    wreg      void 
  4751 ;; Registers used:
  4752 ;;		wreg
  4753 ;; Tracked objects:
  4754 ;;		On entry : 0/0
  4755 ;;		On exit  : 0/0
  4756 ;;		Unchanged: 0/0
  4757 ;; Data sizes:     COMRAM   BANK0   BANK1   BANK2   BANK3   BANK4   BANK5   BANK6   BANK7
  4758 ;;      Params:         0       0       0       0       0       0       0       0       0
  4759 ;;      Locals:         0       0       0       0       0       0       0       0       0
  4760 ;;      Temps:          2       0       0       0       0       0       0       0       0
  4761 ;;      Totals:         2       0       0       0       0       0       0       0       0
  4762 ;;Total ram usage:        2 bytes
  4763 ;; Hardware stack levels used: 1
  4764 ;; This function calls:
  4765 ;;		Nothing
  4766 ;; This function is called by:
  4767 ;;		_controlSemaforo
  4768 ;; This function uses a non-reentrant model
  4769 ;;
  4770                           
  4771                           	psect	text31
  4772  0027B8                     __ptext31:
  4773                           	callstack 0
  4774  0027B8                     _delaymsled_yellow:
  4775                           	callstack 29
  4776  0027B8                     
  4777                           ;mainPic1.c: 203:     _delay((unsigned long)((500)*(8000000/4000.0)));
  4778  0027B8  0E06               	movlw	6
  4779  0027BA  6E02               	movwf	(??_delaymsled_yellow+1)^0,c
  4780  0027BC  0E13               	movlw	19
  4781  0027BE  6E01               	movwf	??_delaymsled_yellow^0,c
  4782  0027C0  0EAE               	movlw	174
  4783  0027C2                     u3407:
  4784  0027C2  2EE8               	decfsz	wreg,f,c
  4785  0027C4  D7FE               	bra	u3407
  4786  0027C6  2E01               	decfsz	??_delaymsled_yellow^0,f,c
  4787  0027C8  D7FC               	bra	u3407
  4788  0027CA  2E02               	decfsz	(??_delaymsled_yellow+1)^0,f,c
  4789  0027CC  D7FA               	bra	u3407
  4790  0027CE  0012               	return		;funcret
  4791  0027D0                     __end_of_delaymsled_yellow:
  4792                           	callstack 0
  4793                           
  4794 ;; *************** function _USART_Init *****************
  4795 ;; Defined at:
  4796 ;;		line 37 in file "USART_SOURCE_FILE.c"
  4797 ;; Parameters:    Size  Location     Type
  4798 ;;  baud_rate       4   55[COMRAM] long 
  4799 ;; Auto vars:     Size  Location     Type
  4800 ;;  temp            4   59[COMRAM] float 
  4801 ;; Return value:  Size  Location     Type
  4802 ;;                  1    wreg      void 
  4803 ;; Registers used:
  4804 ;;		wreg, status,2, status,0, cstack
  4805 ;; Tracked objects:
  4806 ;;		On entry : 0/0
  4807 ;;		On exit  : 0/0
  4808 ;;		Unchanged: 0/0
  4809 ;; Data sizes:     COMRAM   BANK0   BANK1   BANK2   BANK3   BANK4   BANK5   BANK6   BANK7
  4810 ;;      Params:         4       0       0       0       0       0       0       0       0
  4811 ;;      Locals:         4       0       0       0       0       0       0       0       0
  4812 ;;      Temps:          0       0       0       0       0       0       0       0       0
  4813 ;;      Totals:         8       0       0       0       0       0       0       0       0
  4814 ;;Total ram usage:        8 bytes
  4815 ;; Hardware stack levels used: 1
  4816 ;; Hardware stack levels required when called: 1
  4817 ;; This function calls:
  4818 ;;		___fladd
  4819 ;;		___fldiv
  4820 ;;		___fltol
  4821 ;;		___xxtofl
  4822 ;; This function is called by:
  4823 ;;		_main
  4824 ;; This function uses a non-reentrant model
  4825 ;;
  4826                           
  4827                           	psect	text32
  4828  0020C0                     __ptext32:
  4829                           	callstack 0
  4830  0020C0                     _USART_Init:
  4831                           	callstack 29
  4832  0020C0                     
  4833                           ;USART_SOURCE_FILE.c: 37: void USART_Init(long baud_rate);USART_SOURCE_FILE.c: 38: {;USA
      +                          RT_SOURCE_FILE.c: 39:     float temp;;USART_SOURCE_FILE.c: 40:     TRISC6=0;
  4834  0020C0  9C94               	bcf	3988,6,c	;volatile
  4835                           
  4836                           ;USART_SOURCE_FILE.c: 41:     TRISC7=1;
  4837  0020C2  8E94               	bsf	3988,7,c	;volatile
  4838  0020C4                     
  4839                           ;USART_SOURCE_FILE.c: 42:     temp=(((float)(8000000/64)/(float)baud_rate)-1);
  4840  0020C4  C038  F001         	movff	USART_Init@baud_rate,___xxtofl@val
  4841  0020C8  C039  F002         	movff	USART_Init@baud_rate+1,___xxtofl@val+1
  4842  0020CC  C03A  F003         	movff	USART_Init@baud_rate+2,___xxtofl@val+2
  4843  0020D0  C03B  F004         	movff	USART_Init@baud_rate+3,___xxtofl@val+3
  4844  0020D4  0E01               	movlw	1
  4845  0020D6  EC64  F00B         	call	___xxtofl
  4846  0020DA  C001  F013         	movff	?___xxtofl,___fldiv@a
  4847  0020DE  C002  F014         	movff	?___xxtofl+1,___fldiv@a+1
  4848  0020E2  C003  F015         	movff	?___xxtofl+2,___fldiv@a+2
  4849  0020E6  C004  F016         	movff	?___xxtofl+3,___fldiv@a+3
  4850  0020EA  0E00               	movlw	0
  4851  0020EC  6E0F               	movwf	___fldiv@b^0,c
  4852  0020EE  0E24               	movlw	36
  4853  0020F0  6E10               	movwf	(___fldiv@b+1)^0,c
  4854  0020F2  0EF4               	movlw	244
  4855  0020F4  6E11               	movwf	(___fldiv@b+2)^0,c
  4856  0020F6  0E47               	movlw	71
  4857  0020F8  6E12               	movwf	(___fldiv@b+3)^0,c
  4858  0020FA  EC78  F006         	call	___fldiv	;wreg free
  4859  0020FE  C00F  F028         	movff	?___fldiv,___fladd@b
  4860  002102  C010  F029         	movff	?___fldiv+1,___fladd@b+1
  4861  002106  C011  F02A         	movff	?___fldiv+2,___fladd@b+2
  4862  00210A  C012  F02B         	movff	?___fldiv+3,___fladd@b+3
  4863  00210E  0E00               	movlw	0
  4864  002110  6E2C               	movwf	___fladd@a^0,c
  4865  002112  0E00               	movlw	0
  4866  002114  6E2D               	movwf	(___fladd@a+1)^0,c
  4867  002116  0E80               	movlw	128
  4868  002118  6E2E               	movwf	(___fladd@a+2)^0,c
  4869  00211A  0EBF               	movlw	191
  4870  00211C  6E2F               	movwf	(___fladd@a+3)^0,c
  4871  00211E  EC18  F004         	call	___fladd	;wreg free
  4872  002122  C028  F03C         	movff	?___fladd,USART_Init@temp
  4873  002126  C029  F03D         	movff	?___fladd+1,USART_Init@temp+1
  4874  00212A  C02A  F03E         	movff	?___fladd+2,USART_Init@temp+2
  4875  00212E  C02B  F03F         	movff	?___fladd+3,USART_Init@temp+3
  4876                           
  4877                           ;USART_SOURCE_FILE.c: 43:     SPBRG=(int)temp;
  4878  002132  C03C  F001         	movff	USART_Init@temp,___fltol@f1
  4879  002136  C03D  F002         	movff	USART_Init@temp+1,___fltol@f1+1
  4880  00213A  C03E  F003         	movff	USART_Init@temp+2,___fltol@f1+2
  4881  00213E  C03F  F004         	movff	USART_Init@temp+3,___fltol@f1+3
  4882  002142  EC5F  F00E         	call	___fltol	;wreg free
  4883  002146  5001               	movf	?___fltol^0,w,c
  4884  002148  6EAF               	movwf	175,c	;volatile
  4885  00214A                     
  4886                           ;USART_SOURCE_FILE.c: 44:     TXSTA=0x20;
  4887  00214A  0E20               	movlw	32
  4888  00214C  6EAC               	movwf	172,c	;volatile
  4889  00214E                     
  4890                           ;USART_SOURCE_FILE.c: 45:     RCSTA=0x90;
  4891  00214E  0E90               	movlw	144
  4892  002150  6EAB               	movwf	171,c	;volatile
  4893  002152  0012               	return		;funcret
  4894  002154                     __end_of_USART_Init:
  4895                           	callstack 0
  4896                           
  4897 ;; *************** function ___xxtofl *****************
  4898 ;; Defined at:
  4899 ;;		line 10 in file "C:\Program Files\Microchip\xc8\v2.36\pic\sources\c99\common\xxtofl.c"
  4900 ;; Parameters:    Size  Location     Type
  4901 ;;  sign            1    wreg     unsigned char 
  4902 ;;  val             4    0[COMRAM] long 
  4903 ;; Auto vars:     Size  Location     Type
  4904 ;;  sign            1    8[COMRAM] unsigned char 
  4905 ;;  arg             4   10[COMRAM] unsigned long 
  4906 ;;  exp             1    9[COMRAM] unsigned char 
  4907 ;; Return value:  Size  Location     Type
  4908 ;;                  4    0[COMRAM] unsigned char 
  4909 ;; Registers used:
  4910 ;;		wreg, status,2, status,0
  4911 ;; Tracked objects:
  4912 ;;		On entry : 0/0
  4913 ;;		On exit  : 0/0
  4914 ;;		Unchanged: 0/0
  4915 ;; Data sizes:     COMRAM   BANK0   BANK1   BANK2   BANK3   BANK4   BANK5   BANK6   BANK7
  4916 ;;      Params:         4       0       0       0       0       0       0       0       0
  4917 ;;      Locals:         6       0       0       0       0       0       0       0       0
  4918 ;;      Temps:          4       0       0       0       0       0       0       0       0
  4919 ;;      Totals:        14       0       0       0       0       0       0       0       0
  4920 ;;Total ram usage:       14 bytes
  4921 ;; Hardware stack levels used: 1
  4922 ;; This function calls:
  4923 ;;		Nothing
  4924 ;; This function is called by:
  4925 ;;		_USART_Init
  4926 ;; This function uses a non-reentrant model
  4927 ;;
  4928                           
  4929                           	psect	text33
  4930  0016C8                     __ptext33:
  4931                           	callstack 0
  4932  0016C8                     ___xxtofl:
  4933                           	callstack 29
  4934                           
  4935                           ;incstack = 0
  4936                           ;___xxtofl@sign stored from wreg
  4937  0016C8  6E09               	movwf	___xxtofl@sign^0,c
  4938  0016CA  5009               	movf	___xxtofl@sign^0,w,c
  4939  0016CC  B4D8               	btfsc	status,2,c
  4940  0016CE  EF6B  F00B         	goto	u3141
  4941  0016D2  EF6D  F00B         	goto	u3140
  4942  0016D6                     u3141:
  4943  0016D6  EF8F  F00B         	goto	l870
  4944  0016DA                     u3140:
  4945  0016DA  BE04               	btfsc	(___xxtofl@val+3)^0,7,c
  4946  0016DC  EF74  F00B         	goto	u3150
  4947  0016E0  EF72  F00B         	goto	u3151
  4948  0016E4                     u3151:
  4949  0016E4  EF8F  F00B         	goto	l870
  4950  0016E8                     u3150:
  4951  0016E8  C001  F005         	movff	___xxtofl@val,??___xxtofl
  4952  0016EC  C002  F006         	movff	___xxtofl@val+1,??___xxtofl+1
  4953  0016F0  C003  F007         	movff	___xxtofl@val+2,??___xxtofl+2
  4954  0016F4  C004  F008         	movff	___xxtofl@val+3,??___xxtofl+3
  4955  0016F8  1E05               	comf	??___xxtofl^0,f,c
  4956  0016FA  1E06               	comf	(??___xxtofl+1)^0,f,c
  4957  0016FC  1E07               	comf	(??___xxtofl+2)^0,f,c
  4958  0016FE  1E08               	comf	(??___xxtofl+3)^0,f,c
  4959  001700  2A05               	incf	??___xxtofl^0,f,c
  4960  001702  0E00               	movlw	0
  4961  001704  2206               	addwfc	(??___xxtofl+1)^0,f,c
  4962  001706  2207               	addwfc	(??___xxtofl+2)^0,f,c
  4963  001708  2208               	addwfc	(??___xxtofl+3)^0,f,c
  4964  00170A  C005  F00B         	movff	??___xxtofl,___xxtofl@arg
  4965  00170E  C006  F00C         	movff	??___xxtofl+1,___xxtofl@arg+1
  4966  001712  C007  F00D         	movff	??___xxtofl+2,___xxtofl@arg+2
  4967  001716  C008  F00E         	movff	??___xxtofl+3,___xxtofl@arg+3
  4968  00171A  EF97  F00B         	goto	l3132
  4969  00171E                     l870:
  4970  00171E  C001  F00B         	movff	___xxtofl@val,___xxtofl@arg
  4971  001722  C002  F00C         	movff	___xxtofl@val+1,___xxtofl@arg+1
  4972  001726  C003  F00D         	movff	___xxtofl@val+2,___xxtofl@arg+2
  4973  00172A  C004  F00E         	movff	___xxtofl@val+3,___xxtofl@arg+3
  4974  00172E                     l3132:
  4975  00172E  5001               	movf	___xxtofl@val^0,w,c
  4976  001730  1002               	iorwf	(___xxtofl@val+1)^0,w,c
  4977  001732  1003               	iorwf	(___xxtofl@val+2)^0,w,c
  4978  001734  1004               	iorwf	(___xxtofl@val+3)^0,w,c
  4979  001736  A4D8               	btfss	status,2,c
  4980  001738  EFA0  F00B         	goto	u3161
  4981  00173C  EFA2  F00B         	goto	u3160
  4982  001740                     u3161:
  4983  001740  EFAC  F00B         	goto	l3138
  4984  001744                     u3160:
  4985  001744  0E00               	movlw	0
  4986  001746  6E01               	movwf	?___xxtofl^0,c
  4987  001748  0E00               	movlw	0
  4988  00174A  6E02               	movwf	(?___xxtofl+1)^0,c
  4989  00174C  0E00               	movlw	0
  4990  00174E  6E03               	movwf	(?___xxtofl+2)^0,c
  4991  001750  0E00               	movlw	0
  4992  001752  6E04               	movwf	(?___xxtofl+3)^0,c
  4993  001754  EF3D  F00C         	goto	l873
  4994  001758                     l3138:
  4995  001758  0E96               	movlw	150
  4996  00175A  6E0A               	movwf	___xxtofl@exp^0,c
  4997  00175C  EFB6  F00B         	goto	l3142
  4998  001760                     l3140:
  4999  001760  2A0A               	incf	___xxtofl@exp^0,f,c
  5000  001762  90D8               	bcf	status,0,c
  5001  001764  320E               	rrcf	(___xxtofl@arg+3)^0,f,c
  5002  001766  320D               	rrcf	(___xxtofl@arg+2)^0,f,c
  5003  001768  320C               	rrcf	(___xxtofl@arg+1)^0,f,c
  5004  00176A  320B               	rrcf	___xxtofl@arg^0,f,c
  5005  00176C                     l3142:
  5006  00176C  0E00               	movlw	0
  5007  00176E  140B               	andwf	___xxtofl@arg^0,w,c
  5008  001770  6E05               	movwf	??___xxtofl^0,c
  5009  001772  0E00               	movlw	0
  5010  001774  140C               	andwf	(___xxtofl@arg+1)^0,w,c
  5011  001776  6E06               	movwf	(??___xxtofl+1)^0,c
  5012  001778  0E00               	movlw	0
  5013  00177A  140D               	andwf	(___xxtofl@arg+2)^0,w,c
  5014  00177C  6E07               	movwf	(??___xxtofl+2)^0,c
  5015  00177E  0EFE               	movlw	254
  5016  001780  140E               	andwf	(___xxtofl@arg+3)^0,w,c
  5017  001782  6E08               	movwf	(??___xxtofl+3)^0,c
  5018  001784  5005               	movf	??___xxtofl^0,w,c
  5019  001786  1006               	iorwf	(??___xxtofl+1)^0,w,c
  5020  001788  1007               	iorwf	(??___xxtofl+2)^0,w,c
  5021  00178A  1008               	iorwf	(??___xxtofl+3)^0,w,c
  5022  00178C  A4D8               	btfss	status,2,c
  5023  00178E  EFCB  F00B         	goto	u3171
  5024  001792  EFCD  F00B         	goto	u3170
  5025  001796                     u3171:
  5026  001796  EFB0  F00B         	goto	l3140
  5027  00179A                     u3170:
  5028  00179A  EFDB  F00B         	goto	l877
  5029  00179E                     l3144:
  5030  00179E  2A0A               	incf	___xxtofl@exp^0,f,c
  5031  0017A0  0E01               	movlw	1
  5032  0017A2  260B               	addwf	___xxtofl@arg^0,f,c
  5033  0017A4  0E00               	movlw	0
  5034  0017A6  220C               	addwfc	(___xxtofl@arg+1)^0,f,c
  5035  0017A8  220D               	addwfc	(___xxtofl@arg+2)^0,f,c
  5036  0017AA  220E               	addwfc	(___xxtofl@arg+3)^0,f,c
  5037  0017AC  90D8               	bcf	status,0,c
  5038  0017AE  320E               	rrcf	(___xxtofl@arg+3)^0,f,c
  5039  0017B0  320D               	rrcf	(___xxtofl@arg+2)^0,f,c
  5040  0017B2  320C               	rrcf	(___xxtofl@arg+1)^0,f,c
  5041  0017B4  320B               	rrcf	___xxtofl@arg^0,f,c
  5042  0017B6                     l877:
  5043  0017B6  0E00               	movlw	0
  5044  0017B8  140B               	andwf	___xxtofl@arg^0,w,c
  5045  0017BA  6E05               	movwf	??___xxtofl^0,c
  5046  0017BC  0E00               	movlw	0
  5047  0017BE  140C               	andwf	(___xxtofl@arg+1)^0,w,c
  5048  0017C0  6E06               	movwf	(??___xxtofl+1)^0,c
  5049  0017C2  0E00               	movlw	0
  5050  0017C4  140D               	andwf	(___xxtofl@arg+2)^0,w,c
  5051  0017C6  6E07               	movwf	(??___xxtofl+2)^0,c
  5052  0017C8  0EFF               	movlw	255
  5053  0017CA  140E               	andwf	(___xxtofl@arg+3)^0,w,c
  5054  0017CC  6E08               	movwf	(??___xxtofl+3)^0,c
  5055  0017CE  5005               	movf	??___xxtofl^0,w,c
  5056  0017D0  1006               	iorwf	(??___xxtofl+1)^0,w,c
  5057  0017D2  1007               	iorwf	(??___xxtofl+2)^0,w,c
  5058  0017D4  1008               	iorwf	(??___xxtofl+3)^0,w,c
  5059  0017D6  A4D8               	btfss	status,2,c
  5060  0017D8  EFF0  F00B         	goto	u3181
  5061  0017DC  EFF2  F00B         	goto	u3180
  5062  0017E0                     u3181:
  5063  0017E0  EFCF  F00B         	goto	l3144
  5064  0017E4                     u3180:
  5065  0017E4  EFFA  F00B         	goto	l3152
  5066  0017E8                     l3150:
  5067  0017E8  060A               	decf	___xxtofl@exp^0,f,c
  5068  0017EA  90D8               	bcf	status,0,c
  5069  0017EC  360B               	rlcf	___xxtofl@arg^0,f,c
  5070  0017EE  360C               	rlcf	(___xxtofl@arg+1)^0,f,c
  5071  0017F0  360D               	rlcf	(___xxtofl@arg+2)^0,f,c
  5072  0017F2  360E               	rlcf	(___xxtofl@arg+3)^0,f,c
  5073  0017F4                     l3152:
  5074  0017F4  BE0D               	btfsc	(___xxtofl@arg+2)^0,7,c
  5075  0017F6  EFFF  F00B         	goto	u3191
  5076  0017FA  EF01  F00C         	goto	u3190
  5077  0017FE                     u3191:
  5078  0017FE  EF09  F00C         	goto	l884
  5079  001802                     u3190:
  5080  001802  0E02               	movlw	2
  5081  001804  600A               	cpfslt	___xxtofl@exp^0,c
  5082  001806  EF07  F00C         	goto	u3201
  5083  00180A  EF09  F00C         	goto	u3200
  5084  00180E                     u3201:
  5085  00180E  EFF4  F00B         	goto	l3150
  5086  001812                     u3200:
  5087  001812                     l884:
  5088  001812  B00A               	btfsc	___xxtofl@exp^0,0,c
  5089  001814  EF0E  F00C         	goto	u3211
  5090  001818  EF10  F00C         	goto	u3210
  5091  00181C                     u3211:
  5092  00181C  EF11  F00C         	goto	l3158
  5093  001820                     u3210:
  5094  001820  9E0D               	bcf	(___xxtofl@arg+2)^0,7,c
  5095  001822                     l3158:
  5096  001822  90D8               	bcf	status,0,c
  5097  001824  320A               	rrcf	___xxtofl@exp^0,f,c
  5098  001826  C00A  F005         	movff	___xxtofl@exp,??___xxtofl
  5099  00182A  6A06               	clrf	(??___xxtofl+1)^0,c
  5100  00182C  6A07               	clrf	(??___xxtofl+2)^0,c
  5101  00182E  6A08               	clrf	(??___xxtofl+3)^0,c
  5102  001830  C005  F008         	movff	??___xxtofl,??___xxtofl+3
  5103  001834  6A07               	clrf	(??___xxtofl+2)^0,c
  5104  001836  6A06               	clrf	(??___xxtofl+1)^0,c
  5105  001838  6A05               	clrf	??___xxtofl^0,c
  5106  00183A  5005               	movf	??___xxtofl^0,w,c
  5107  00183C  120B               	iorwf	___xxtofl@arg^0,f,c
  5108  00183E  5006               	movf	(??___xxtofl+1)^0,w,c
  5109  001840  120C               	iorwf	(___xxtofl@arg+1)^0,f,c
  5110  001842  5007               	movf	(??___xxtofl+2)^0,w,c
  5111  001844  120D               	iorwf	(___xxtofl@arg+2)^0,f,c
  5112  001846  5008               	movf	(??___xxtofl+3)^0,w,c
  5113  001848  120E               	iorwf	(___xxtofl@arg+3)^0,f,c
  5114  00184A  5009               	movf	___xxtofl@sign^0,w,c
  5115  00184C  B4D8               	btfsc	status,2,c
  5116  00184E  EF2B  F00C         	goto	u3221
  5117  001852  EF2D  F00C         	goto	u3220
  5118  001856                     u3221:
  5119  001856  EF35  F00C         	goto	l3168
  5120  00185A                     u3220:
  5121  00185A  BE04               	btfsc	(___xxtofl@val+3)^0,7,c
  5122  00185C  EF34  F00C         	goto	u3230
  5123  001860  EF32  F00C         	goto	u3231
  5124  001864                     u3231:
  5125  001864  EF35  F00C         	goto	l3168
  5126  001868                     u3230:
  5127  001868  8E0E               	bsf	(___xxtofl@arg+3)^0,7,c
  5128  00186A                     l3168:
  5129  00186A  C00B  F001         	movff	___xxtofl@arg,?___xxtofl
  5130  00186E  C00C  F002         	movff	___xxtofl@arg+1,?___xxtofl+1
  5131  001872  C00D  F003         	movff	___xxtofl@arg+2,?___xxtofl+2
  5132  001876  C00E  F004         	movff	___xxtofl@arg+3,?___xxtofl+3
  5133  00187A                     l873:
  5134  00187A  0012               	return		;funcret
  5135  00187C                     __end_of___xxtofl:
  5136                           	callstack 0
  5137                           
  5138 ;; *************** function ___fltol *****************
  5139 ;; Defined at:
  5140 ;;		line 43 in file "C:\Program Files\Microchip\xc8\v2.36\pic\sources\c99\common\fltol.c"
  5141 ;; Parameters:    Size  Location     Type
  5142 ;;  f1              4    0[COMRAM] unsigned char 
  5143 ;; Auto vars:     Size  Location     Type
  5144 ;;  exp1            1    9[COMRAM] unsigned char 
  5145 ;;  sign1           1    8[COMRAM] unsigned char 
  5146 ;; Return value:  Size  Location     Type
  5147 ;;                  4    0[COMRAM] long 
  5148 ;; Registers used:
  5149 ;;		wreg, status,2, status,0
  5150 ;; Tracked objects:
  5151 ;;		On entry : 0/0
  5152 ;;		On exit  : 0/0
  5153 ;;		Unchanged: 0/0
  5154 ;; Data sizes:     COMRAM   BANK0   BANK1   BANK2   BANK3   BANK4   BANK5   BANK6   BANK7
  5155 ;;      Params:         4       0       0       0       0       0       0       0       0
  5156 ;;      Locals:         2       0       0       0       0       0       0       0       0
  5157 ;;      Temps:          4       0       0       0       0       0       0       0       0
  5158 ;;      Totals:        10       0       0       0       0       0       0       0       0
  5159 ;;Total ram usage:       10 bytes
  5160 ;; Hardware stack levels used: 1
  5161 ;; This function calls:
  5162 ;;		Nothing
  5163 ;; This function is called by:
  5164 ;;		_USART_Init
  5165 ;; This function uses a non-reentrant model
  5166 ;;
  5167                           
  5168                           	psect	text34
  5169  001CBE                     __ptext34:
  5170                           	callstack 0
  5171  001CBE                     ___fltol:
  5172                           	callstack 29
  5173  001CBE  3403               	rlcf	(___fltol@f1+2)^0,w,c
  5174  001CC0  3404               	rlcf	(___fltol@f1+3)^0,w,c
  5175  001CC2  6E0A               	movwf	___fltol@exp1^0,c
  5176  001CC4  500A               	movf	___fltol@exp1^0,w,c
  5177  001CC6  A4D8               	btfss	status,2,c
  5178  001CC8  EF68  F00E         	goto	u3071
  5179  001CCC  EF6A  F00E         	goto	u3070
  5180  001CD0                     u3071:
  5181  001CD0  EF74  F00E         	goto	l3088
  5182  001CD4                     u3070:
  5183  001CD4                     l3084:
  5184  001CD4  0E00               	movlw	0
  5185  001CD6  6E01               	movwf	?___fltol^0,c
  5186  001CD8  0E00               	movlw	0
  5187  001CDA  6E02               	movwf	(?___fltol+1)^0,c
  5188  001CDC  0E00               	movlw	0
  5189  001CDE  6E03               	movwf	(?___fltol+2)^0,c
  5190  001CE0  0E00               	movlw	0
  5191  001CE2  6E04               	movwf	(?___fltol+3)^0,c
  5192  001CE4  EFE1  F00E         	goto	l512
  5193  001CE8                     l3088:
  5194  001CE8  C001  F005         	movff	___fltol@f1,??___fltol
  5195  001CEC  C002  F006         	movff	___fltol@f1+1,??___fltol+1
  5196  001CF0  C003  F007         	movff	___fltol@f1+2,??___fltol+2
  5197  001CF4  C004  F008         	movff	___fltol@f1+3,??___fltol+3
  5198  001CF8  0E20               	movlw	32
  5199  001CFA  EF84  F00E         	goto	u3080
  5200  001CFE                     u3085:
  5201  001CFE  90D8               	bcf	status,0,c
  5202  001D00  3208               	rrcf	(??___fltol+3)^0,f,c
  5203  001D02  3207               	rrcf	(??___fltol+2)^0,f,c
  5204  001D04  3206               	rrcf	(??___fltol+1)^0,f,c
  5205  001D06  3205               	rrcf	??___fltol^0,f,c
  5206  001D08                     u3080:
  5207  001D08  2EE8               	decfsz	wreg,f,c
  5208  001D0A  EF7F  F00E         	goto	u3085
  5209  001D0E  5005               	movf	??___fltol^0,w,c
  5210  001D10  6E09               	movwf	___fltol@sign1^0,c
  5211  001D12  8E03               	bsf	(___fltol@f1+2)^0,7,c
  5212  001D14  0EFF               	movlw	255
  5213  001D16  1601               	andwf	___fltol@f1^0,f,c
  5214  001D18  0EFF               	movlw	255
  5215  001D1A  1602               	andwf	(___fltol@f1+1)^0,f,c
  5216  001D1C  0EFF               	movlw	255
  5217  001D1E  1603               	andwf	(___fltol@f1+2)^0,f,c
  5218  001D20  0E00               	movlw	0
  5219  001D22  1604               	andwf	(___fltol@f1+3)^0,f,c
  5220  001D24  0E96               	movlw	150
  5221  001D26  5E0A               	subwf	___fltol@exp1^0,f,c
  5222  001D28  BE0A               	btfsc	___fltol@exp1^0,7,c
  5223  001D2A  EF9B  F00E         	goto	u3090
  5224  001D2E  EF99  F00E         	goto	u3091
  5225  001D32                     u3091:
  5226  001D32  EFB1  F00E         	goto	l3108
  5227  001D36                     u3090:
  5228  001D36  500A               	movf	___fltol@exp1^0,w,c
  5229  001D38  0A80               	xorlw	128
  5230  001D3A  0F97               	addlw	151
  5231  001D3C  B0D8               	btfsc	status,0,c
  5232  001D3E  EFA3  F00E         	goto	u3101
  5233  001D42  EFA5  F00E         	goto	u3100
  5234  001D46                     u3101:
  5235  001D46  EFA7  F00E         	goto	l3104
  5236  001D4A                     u3100:
  5237  001D4A  EF6A  F00E         	goto	l3084
  5238  001D4E                     l3104:
  5239  001D4E  90D8               	bcf	status,0,c
  5240  001D50  3204               	rrcf	(___fltol@f1+3)^0,f,c
  5241  001D52  3203               	rrcf	(___fltol@f1+2)^0,f,c
  5242  001D54  3202               	rrcf	(___fltol@f1+1)^0,f,c
  5243  001D56  3201               	rrcf	___fltol@f1^0,f,c
  5244  001D58  3E0A               	incfsz	___fltol@exp1^0,f,c
  5245  001D5A  EFA7  F00E         	goto	l3104
  5246  001D5E  EFC9  F00E         	goto	l3118
  5247  001D62                     l3108:
  5248  001D62  0E1F               	movlw	31
  5249  001D64  640A               	cpfsgt	___fltol@exp1^0,c
  5250  001D66  EFB7  F00E         	goto	u3111
  5251  001D6A  EFB9  F00E         	goto	u3110
  5252  001D6E                     u3111:
  5253  001D6E  EFC1  F00E         	goto	l3116
  5254  001D72                     u3110:
  5255  001D72  EF6A  F00E         	goto	l3084
  5256  001D76                     l3114:
  5257  001D76  90D8               	bcf	status,0,c
  5258  001D78  3601               	rlcf	___fltol@f1^0,f,c
  5259  001D7A  3602               	rlcf	(___fltol@f1+1)^0,f,c
  5260  001D7C  3603               	rlcf	(___fltol@f1+2)^0,f,c
  5261  001D7E  3604               	rlcf	(___fltol@f1+3)^0,f,c
  5262  001D80  060A               	decf	___fltol@exp1^0,f,c
  5263  001D82                     l3116:
  5264  001D82  500A               	movf	___fltol@exp1^0,w,c
  5265  001D84  A4D8               	btfss	status,2,c
  5266  001D86  EFC7  F00E         	goto	u3121
  5267  001D8A  EFC9  F00E         	goto	u3120
  5268  001D8E                     u3121:
  5269  001D8E  EFBB  F00E         	goto	l3114
  5270  001D92                     u3120:
  5271  001D92                     l3118:
  5272  001D92  5009               	movf	___fltol@sign1^0,w,c
  5273  001D94  B4D8               	btfsc	status,2,c
  5274  001D96  EFCF  F00E         	goto	u3131
  5275  001D9A  EFD1  F00E         	goto	u3130
  5276  001D9E                     u3131:
  5277  001D9E  EFD9  F00E         	goto	l3122
  5278  001DA2                     u3130:
  5279  001DA2  1E04               	comf	(___fltol@f1+3)^0,f,c
  5280  001DA4  1E03               	comf	(___fltol@f1+2)^0,f,c
  5281  001DA6  1E02               	comf	(___fltol@f1+1)^0,f,c
  5282  001DA8  6C01               	negf	___fltol@f1^0,c
  5283  001DAA  0E00               	movlw	0
  5284  001DAC  2202               	addwfc	(___fltol@f1+1)^0,f,c
  5285  001DAE  2203               	addwfc	(___fltol@f1+2)^0,f,c
  5286  001DB0  2204               	addwfc	(___fltol@f1+3)^0,f,c
  5287  001DB2                     l3122:
  5288  001DB2  C001  F001         	movff	___fltol@f1,?___fltol
  5289  001DB6  C002  F002         	movff	___fltol@f1+1,?___fltol+1
  5290  001DBA  C003  F003         	movff	___fltol@f1+2,?___fltol+2
  5291  001DBE  C004  F004         	movff	___fltol@f1+3,?___fltol+3
  5292  001DC2                     l512:
  5293  001DC2  0012               	return		;funcret
  5294  001DC4                     __end_of___fltol:
  5295                           	callstack 0
  5296                           
  5297 ;; *************** function ___fldiv *****************
  5298 ;; Defined at:
  5299 ;;		line 11 in file "C:\Program Files\Microchip\xc8\v2.36\pic\sources\c99\common\sprcdiv.c"
  5300 ;; Parameters:    Size  Location     Type
  5301 ;;  b               4   14[COMRAM] long 
  5302 ;;  a               4   18[COMRAM] long 
  5303 ;; Auto vars:     Size  Location     Type
  5304 ;;  grs             4   33[COMRAM] unsigned long 
  5305 ;;  rem             4   26[COMRAM] unsigned long 
  5306 ;;  new_exp         2   31[COMRAM] short 
  5307 ;;  aexp            1   38[COMRAM] unsigned char 
  5308 ;;  bexp            1   37[COMRAM] unsigned char 
  5309 ;;  sign            1   30[COMRAM] unsigned char 
  5310 ;; Return value:  Size  Location     Type
  5311 ;;                  4   14[COMRAM] unsigned char 
  5312 ;; Registers used:
  5313 ;;		wreg, status,2, status,0
  5314 ;; Tracked objects:
  5315 ;;		On entry : 0/0
  5316 ;;		On exit  : 0/0
  5317 ;;		Unchanged: 0/0
  5318 ;; Data sizes:     COMRAM   BANK0   BANK1   BANK2   BANK3   BANK4   BANK5   BANK6   BANK7
  5319 ;;      Params:         8       0       0       0       0       0       0       0       0
  5320 ;;      Locals:        13       0       0       0       0       0       0       0       0
  5321 ;;      Temps:          4       0       0       0       0       0       0       0       0
  5322 ;;      Totals:        25       0       0       0       0       0       0       0       0
  5323 ;;Total ram usage:       25 bytes
  5324 ;; Hardware stack levels used: 1
  5325 ;; This function calls:
  5326 ;;		Nothing
  5327 ;; This function is called by:
  5328 ;;		_USART_Init
  5329 ;; This function uses a non-reentrant model
  5330 ;;
  5331                           
  5332                           	psect	text35
  5333  000CF0                     __ptext35:
  5334                           	callstack 0
  5335  000CF0                     ___fldiv:
  5336                           	callstack 29
  5337  000CF0  5012               	movf	(___fldiv@b+3)^0,w,c
  5338  000CF2  0B80               	andlw	128
  5339  000CF4  6E1F               	movwf	___fldiv@sign^0,c
  5340  000CF6  5012               	movf	(___fldiv@b+3)^0,w,c
  5341  000CF8  2412               	addwf	(___fldiv@b+3)^0,w,c
  5342  000CFA  6E26               	movwf	___fldiv@bexp^0,c
  5343  000CFC  AE11               	btfss	(___fldiv@b+2)^0,7,c
  5344  000CFE  EF83  F006         	goto	u2841
  5345  000D02  EF85  F006         	goto	u2840
  5346  000D06                     u2841:
  5347  000D06  EF86  F006         	goto	l2950
  5348  000D0A                     u2840:
  5349  000D0A  8026               	bsf	___fldiv@bexp^0,0,c
  5350  000D0C                     l2950:
  5351  000D0C  5026               	movf	___fldiv@bexp^0,w,c
  5352  000D0E  B4D8               	btfsc	status,2,c
  5353  000D10  EF8C  F006         	goto	u2851
  5354  000D14  EF8E  F006         	goto	u2850
  5355  000D18                     u2851:
  5356  000D18  EFA3  F006         	goto	l2960
  5357  000D1C                     u2850:
  5358  000D1C  2826               	incf	___fldiv@bexp^0,w,c
  5359  000D1E  A4D8               	btfss	status,2,c
  5360  000D20  EF94  F006         	goto	u2861
  5361  000D24  EF96  F006         	goto	u2860
  5362  000D28                     u2861:
  5363  000D28  EF9E  F006         	goto	l2956
  5364  000D2C                     u2860:
  5365  000D2C  0E00               	movlw	0
  5366  000D2E  6E0F               	movwf	___fldiv@b^0,c
  5367  000D30  0E00               	movlw	0
  5368  000D32  6E10               	movwf	(___fldiv@b+1)^0,c
  5369  000D34  0E00               	movlw	0
  5370  000D36  6E11               	movwf	(___fldiv@b+2)^0,c
  5371  000D38  0E00               	movlw	0
  5372  000D3A  6E12               	movwf	(___fldiv@b+3)^0,c
  5373  000D3C                     l2956:
  5374  000D3C  8E11               	bsf	(___fldiv@b+2)^0,7,c
  5375  000D3E  0E00               	movlw	0
  5376  000D40  6E12               	movwf	(___fldiv@b+3)^0,c
  5377  000D42  EFAB  F006         	goto	l2962
  5378  000D46                     l2960:
  5379  000D46  0E00               	movlw	0
  5380  000D48  6E0F               	movwf	___fldiv@b^0,c
  5381  000D4A  0E00               	movlw	0
  5382  000D4C  6E10               	movwf	(___fldiv@b+1)^0,c
  5383  000D4E  0E00               	movlw	0
  5384  000D50  6E11               	movwf	(___fldiv@b+2)^0,c
  5385  000D52  0E00               	movlw	0
  5386  000D54  6E12               	movwf	(___fldiv@b+3)^0,c
  5387  000D56                     l2962:
  5388  000D56  5016               	movf	(___fldiv@a+3)^0,w,c
  5389  000D58  0B80               	andlw	128
  5390  000D5A  1A1F               	xorwf	___fldiv@sign^0,f,c
  5391  000D5C  5016               	movf	(___fldiv@a+3)^0,w,c
  5392  000D5E  2416               	addwf	(___fldiv@a+3)^0,w,c
  5393  000D60  6E27               	movwf	___fldiv@aexp^0,c
  5394  000D62  AE15               	btfss	(___fldiv@a+2)^0,7,c
  5395  000D64  EFB6  F006         	goto	u2871
  5396  000D68  EFB8  F006         	goto	u2870
  5397  000D6C                     u2871:
  5398  000D6C  EFB9  F006         	goto	l2970
  5399  000D70                     u2870:
  5400  000D70  8027               	bsf	___fldiv@aexp^0,0,c
  5401  000D72                     l2970:
  5402  000D72  5027               	movf	___fldiv@aexp^0,w,c
  5403  000D74  B4D8               	btfsc	status,2,c
  5404  000D76  EFBF  F006         	goto	u2881
  5405  000D7A  EFC1  F006         	goto	u2880
  5406  000D7E                     u2881:
  5407  000D7E  EFD6  F006         	goto	l2980
  5408  000D82                     u2880:
  5409  000D82  2827               	incf	___fldiv@aexp^0,w,c
  5410  000D84  A4D8               	btfss	status,2,c
  5411  000D86  EFC7  F006         	goto	u2891
  5412  000D8A  EFC9  F006         	goto	u2890
  5413  000D8E                     u2891:
  5414  000D8E  EFD1  F006         	goto	l2976
  5415  000D92                     u2890:
  5416  000D92  0E00               	movlw	0
  5417  000D94  6E13               	movwf	___fldiv@a^0,c
  5418  000D96  0E00               	movlw	0
  5419  000D98  6E14               	movwf	(___fldiv@a+1)^0,c
  5420  000D9A  0E00               	movlw	0
  5421  000D9C  6E15               	movwf	(___fldiv@a+2)^0,c
  5422  000D9E  0E00               	movlw	0
  5423  000DA0  6E16               	movwf	(___fldiv@a+3)^0,c
  5424  000DA2                     l2976:
  5425  000DA2  8E15               	bsf	(___fldiv@a+2)^0,7,c
  5426  000DA4  0E00               	movlw	0
  5427  000DA6  6E16               	movwf	(___fldiv@a+3)^0,c
  5428  000DA8  EFDE  F006         	goto	l2982
  5429  000DAC                     l2980:
  5430  000DAC  0E00               	movlw	0
  5431  000DAE  6E13               	movwf	___fldiv@a^0,c
  5432  000DB0  0E00               	movlw	0
  5433  000DB2  6E14               	movwf	(___fldiv@a+1)^0,c
  5434  000DB4  0E00               	movlw	0
  5435  000DB6  6E15               	movwf	(___fldiv@a+2)^0,c
  5436  000DB8  0E00               	movlw	0
  5437  000DBA  6E16               	movwf	(___fldiv@a+3)^0,c
  5438  000DBC                     l2982:
  5439  000DBC  5013               	movf	___fldiv@a^0,w,c
  5440  000DBE  1014               	iorwf	(___fldiv@a+1)^0,w,c
  5441  000DC0  1015               	iorwf	(___fldiv@a+2)^0,w,c
  5442  000DC2  1016               	iorwf	(___fldiv@a+3)^0,w,c
  5443  000DC4  A4D8               	btfss	status,2,c
  5444  000DC6  EFE7  F006         	goto	u2901
  5445  000DCA  EFE9  F006         	goto	u2900
  5446  000DCE                     u2901:
  5447  000DCE  EF01  F007         	goto	l2994
  5448  000DD2                     u2900:
  5449  000DD2  0E00               	movlw	0
  5450  000DD4  6E0F               	movwf	___fldiv@b^0,c
  5451  000DD6  0E00               	movlw	0
  5452  000DD8  6E10               	movwf	(___fldiv@b+1)^0,c
  5453  000DDA  0E00               	movlw	0
  5454  000DDC  6E11               	movwf	(___fldiv@b+2)^0,c
  5455  000DDE  0E00               	movlw	0
  5456  000DE0  6E12               	movwf	(___fldiv@b+3)^0,c
  5457  000DE2  0E80               	movlw	128
  5458  000DE4  1211               	iorwf	(___fldiv@b+2)^0,f,c
  5459  000DE6  0E7F               	movlw	127
  5460  000DE8  1212               	iorwf	(___fldiv@b+3)^0,f,c
  5461  000DEA                     l2988:
  5462  000DEA  501F               	movf	___fldiv@sign^0,w,c
  5463  000DEC  1212               	iorwf	(___fldiv@b+3)^0,f,c
  5464  000DEE  C00F  F00F         	movff	___fldiv@b,?___fldiv
  5465  000DF2  C010  F010         	movff	___fldiv@b+1,?___fldiv+1
  5466  000DF6  C011  F011         	movff	___fldiv@b+2,?___fldiv+2
  5467  000DFA  C012  F012         	movff	___fldiv@b+3,?___fldiv+3
  5468  000DFE  EF44  F008         	goto	l797
  5469  000E02                     l2994:
  5470  000E02  5026               	movf	___fldiv@bexp^0,w,c
  5471  000E04  A4D8               	btfss	status,2,c
  5472  000E06  EF07  F007         	goto	u2911
  5473  000E0A  EF09  F007         	goto	u2910
  5474  000E0E                     u2911:
  5475  000E0E  EF13  F007         	goto	l3002
  5476  000E12                     u2910:
  5477  000E12  0E00               	movlw	0
  5478  000E14  6E0F               	movwf	?___fldiv^0,c
  5479  000E16  0E00               	movlw	0
  5480  000E18  6E10               	movwf	(?___fldiv+1)^0,c
  5481  000E1A  0E00               	movlw	0
  5482  000E1C  6E11               	movwf	(?___fldiv+2)^0,c
  5483  000E1E  0E00               	movlw	0
  5484  000E20  6E12               	movwf	(?___fldiv+3)^0,c
  5485  000E22  EF44  F008         	goto	l797
  5486  000E26                     l3002:
  5487  000E26  5027               	movf	___fldiv@aexp^0,w,c
  5488  000E28  C026  F017         	movff	___fldiv@bexp,??___fldiv
  5489  000E2C  6A18               	clrf	(??___fldiv+1)^0,c
  5490  000E2E  5E17               	subwf	??___fldiv^0,f,c
  5491  000E30  0E00               	movlw	0
  5492  000E32  5A18               	subwfb	(??___fldiv+1)^0,f,c
  5493  000E34  0E7F               	movlw	127
  5494  000E36  2417               	addwf	??___fldiv^0,w,c
  5495  000E38  6E20               	movwf	___fldiv@new_exp^0,c
  5496  000E3A  0E00               	movlw	0
  5497  000E3C  2018               	addwfc	(??___fldiv+1)^0,w,c
  5498  000E3E  6E21               	movwf	(___fldiv@new_exp+1)^0,c
  5499  000E40  C00F  F01B         	movff	___fldiv@b,___fldiv@rem
  5500  000E44  C010  F01C         	movff	___fldiv@b+1,___fldiv@rem+1
  5501  000E48  C011  F01D         	movff	___fldiv@b+2,___fldiv@rem+2
  5502  000E4C  C012  F01E         	movff	___fldiv@b+3,___fldiv@rem+3
  5503  000E50  0E00               	movlw	0
  5504  000E52  6E0F               	movwf	___fldiv@b^0,c
  5505  000E54  0E00               	movlw	0
  5506  000E56  6E10               	movwf	(___fldiv@b+1)^0,c
  5507  000E58  0E00               	movlw	0
  5508  000E5A  6E11               	movwf	(___fldiv@b+2)^0,c
  5509  000E5C  0E00               	movlw	0
  5510  000E5E  6E12               	movwf	(___fldiv@b+3)^0,c
  5511  000E60  0E00               	movlw	0
  5512  000E62  6E22               	movwf	___fldiv@grs^0,c
  5513  000E64  0E00               	movlw	0
  5514  000E66  6E23               	movwf	(___fldiv@grs+1)^0,c
  5515  000E68  0E00               	movlw	0
  5516  000E6A  6E24               	movwf	(___fldiv@grs+2)^0,c
  5517  000E6C  0E00               	movlw	0
  5518  000E6E  6E25               	movwf	(___fldiv@grs+3)^0,c
  5519  000E70  0E00               	movlw	0
  5520  000E72  6E27               	movwf	___fldiv@aexp^0,c
  5521  000E74  EF74  F007         	goto	l799
  5522  000E78                     l3012:
  5523  000E78  5027               	movf	___fldiv@aexp^0,w,c
  5524  000E7A  B4D8               	btfsc	status,2,c
  5525  000E7C  EF42  F007         	goto	u2921
  5526  000E80  EF44  F007         	goto	u2920
  5527  000E84                     u2921:
  5528  000E84  EF5B  F007         	goto	l3020
  5529  000E88                     u2920:
  5530  000E88  90D8               	bcf	status,0,c
  5531  000E8A  361B               	rlcf	___fldiv@rem^0,f,c
  5532  000E8C  361C               	rlcf	(___fldiv@rem+1)^0,f,c
  5533  000E8E  361D               	rlcf	(___fldiv@rem+2)^0,f,c
  5534  000E90  361E               	rlcf	(___fldiv@rem+3)^0,f,c
  5535  000E92  90D8               	bcf	status,0,c
  5536  000E94  360F               	rlcf	___fldiv@b^0,f,c
  5537  000E96  3610               	rlcf	(___fldiv@b+1)^0,f,c
  5538  000E98  3611               	rlcf	(___fldiv@b+2)^0,f,c
  5539  000E9A  3612               	rlcf	(___fldiv@b+3)^0,f,c
  5540  000E9C  AE25               	btfss	(___fldiv@grs+3)^0,7,c
  5541  000E9E  EF53  F007         	goto	u2931
  5542  000EA2  EF55  F007         	goto	u2930
  5543  000EA6                     u2931:
  5544  000EA6  EF56  F007         	goto	l802
  5545  000EAA                     u2930:
  5546  000EAA  800F               	bsf	___fldiv@b^0,0,c
  5547  000EAC                     l802:
  5548  000EAC  90D8               	bcf	status,0,c
  5549  000EAE  3622               	rlcf	___fldiv@grs^0,f,c
  5550  000EB0  3623               	rlcf	(___fldiv@grs+1)^0,f,c
  5551  000EB2  3624               	rlcf	(___fldiv@grs+2)^0,f,c
  5552  000EB4  3625               	rlcf	(___fldiv@grs+3)^0,f,c
  5553  000EB6                     l3020:
  5554  000EB6  5013               	movf	___fldiv@a^0,w,c
  5555  000EB8  5C1B               	subwf	___fldiv@rem^0,w,c
  5556  000EBA  5014               	movf	(___fldiv@a+1)^0,w,c
  5557  000EBC  581C               	subwfb	(___fldiv@rem+1)^0,w,c
  5558  000EBE  5015               	movf	(___fldiv@a+2)^0,w,c
  5559  000EC0  581D               	subwfb	(___fldiv@rem+2)^0,w,c
  5560  000EC2  5016               	movf	(___fldiv@a+3)^0,w,c
  5561  000EC4  581E               	subwfb	(___fldiv@rem+3)^0,w,c
  5562  000EC6  A0D8               	btfss	status,0,c
  5563  000EC8  EF68  F007         	goto	u2941
  5564  000ECC  EF6A  F007         	goto	u2940
  5565  000ED0                     u2941:
  5566  000ED0  EF73  F007         	goto	l3026
  5567  000ED4                     u2940:
  5568  000ED4  8C25               	bsf	(___fldiv@grs+3)^0,6,c
  5569  000ED6  5013               	movf	___fldiv@a^0,w,c
  5570  000ED8  5E1B               	subwf	___fldiv@rem^0,f,c
  5571  000EDA  5014               	movf	(___fldiv@a+1)^0,w,c
  5572  000EDC  5A1C               	subwfb	(___fldiv@rem+1)^0,f,c
  5573  000EDE  5015               	movf	(___fldiv@a+2)^0,w,c
  5574  000EE0  5A1D               	subwfb	(___fldiv@rem+2)^0,f,c
  5575  000EE2  5016               	movf	(___fldiv@a+3)^0,w,c
  5576  000EE4  5A1E               	subwfb	(___fldiv@rem+3)^0,f,c
  5577  000EE6                     l3026:
  5578  000EE6  2A27               	incf	___fldiv@aexp^0,f,c
  5579  000EE8                     l799:
  5580  000EE8  0E19               	movlw	25
  5581  000EEA  6427               	cpfsgt	___fldiv@aexp^0,c
  5582  000EEC  EF7A  F007         	goto	u2951
  5583  000EF0  EF7C  F007         	goto	u2950
  5584  000EF4                     u2951:
  5585  000EF4  EF3C  F007         	goto	l3012
  5586  000EF8                     u2950:
  5587  000EF8  501B               	movf	___fldiv@rem^0,w,c
  5588  000EFA  101C               	iorwf	(___fldiv@rem+1)^0,w,c
  5589  000EFC  101D               	iorwf	(___fldiv@rem+2)^0,w,c
  5590  000EFE  101E               	iorwf	(___fldiv@rem+3)^0,w,c
  5591  000F00  B4D8               	btfsc	status,2,c
  5592  000F02  EF85  F007         	goto	u2961
  5593  000F06  EF87  F007         	goto	u2960
  5594  000F0A                     u2961:
  5595  000F0A  EF9F  F007         	goto	l3038
  5596  000F0E                     u2960:
  5597  000F0E  8022               	bsf	___fldiv@grs^0,0,c
  5598  000F10  EF9F  F007         	goto	l3038
  5599  000F14                     l3032:
  5600  000F14  90D8               	bcf	status,0,c
  5601  000F16  360F               	rlcf	___fldiv@b^0,f,c
  5602  000F18  3610               	rlcf	(___fldiv@b+1)^0,f,c
  5603  000F1A  3611               	rlcf	(___fldiv@b+2)^0,f,c
  5604  000F1C  3612               	rlcf	(___fldiv@b+3)^0,f,c
  5605  000F1E  AE25               	btfss	(___fldiv@grs+3)^0,7,c
  5606  000F20  EF94  F007         	goto	u2971
  5607  000F24  EF96  F007         	goto	u2970
  5608  000F28                     u2971:
  5609  000F28  EF97  F007         	goto	l808
  5610  000F2C                     u2970:
  5611  000F2C  800F               	bsf	___fldiv@b^0,0,c
  5612  000F2E                     l808:
  5613  000F2E  90D8               	bcf	status,0,c
  5614  000F30  3622               	rlcf	___fldiv@grs^0,f,c
  5615  000F32  3623               	rlcf	(___fldiv@grs+1)^0,f,c
  5616  000F34  3624               	rlcf	(___fldiv@grs+2)^0,f,c
  5617  000F36  3625               	rlcf	(___fldiv@grs+3)^0,f,c
  5618  000F38  0620               	decf	___fldiv@new_exp^0,f,c
  5619  000F3A  A0D8               	btfss	status,0,c
  5620  000F3C  0621               	decf	(___fldiv@new_exp+1)^0,f,c
  5621  000F3E                     l3038:
  5622  000F3E  AE11               	btfss	(___fldiv@b+2)^0,7,c
  5623  000F40  EFA4  F007         	goto	u2981
  5624  000F44  EFA6  F007         	goto	u2980
  5625  000F48                     u2981:
  5626  000F48  EF8A  F007         	goto	l3032
  5627  000F4C                     u2980:
  5628  000F4C  0E00               	movlw	0
  5629  000F4E  6E27               	movwf	___fldiv@aexp^0,c
  5630  000F50  AE25               	btfss	(___fldiv@grs+3)^0,7,c
  5631  000F52  EFAD  F007         	goto	u2991
  5632  000F56  EFAF  F007         	goto	u2990
  5633  000F5A                     u2991:
  5634  000F5A  EFD3  F007         	goto	l810
  5635  000F5E                     u2990:
  5636  000F5E  0EFF               	movlw	255
  5637  000F60  1422               	andwf	___fldiv@grs^0,w,c
  5638  000F62  6E17               	movwf	??___fldiv^0,c
  5639  000F64  0EFF               	movlw	255
  5640  000F66  1423               	andwf	(___fldiv@grs+1)^0,w,c
  5641  000F68  6E18               	movwf	(??___fldiv+1)^0,c
  5642  000F6A  0EFF               	movlw	255
  5643  000F6C  1424               	andwf	(___fldiv@grs+2)^0,w,c
  5644  000F6E  6E19               	movwf	(??___fldiv+2)^0,c
  5645  000F70  0E7F               	movlw	127
  5646  000F72  1425               	andwf	(___fldiv@grs+3)^0,w,c
  5647  000F74  6E1A               	movwf	(??___fldiv+3)^0,c
  5648  000F76  5017               	movf	??___fldiv^0,w,c
  5649  000F78  1018               	iorwf	(??___fldiv+1)^0,w,c
  5650  000F7A  1019               	iorwf	(??___fldiv+2)^0,w,c
  5651  000F7C  101A               	iorwf	(??___fldiv+3)^0,w,c
  5652  000F7E  B4D8               	btfsc	status,2,c
  5653  000F80  EFC4  F007         	goto	u3001
  5654  000F84  EFC6  F007         	goto	u3000
  5655  000F88                     u3001:
  5656  000F88  EFCA  F007         	goto	l811
  5657  000F8C                     u3000:
  5658  000F8C                     l3046:
  5659  000F8C  0E01               	movlw	1
  5660  000F8E  6E27               	movwf	___fldiv@aexp^0,c
  5661  000F90  EFD3  F007         	goto	l810
  5662  000F94                     l811:
  5663  000F94  A00F               	btfss	___fldiv@b^0,0,c
  5664  000F96  EFCF  F007         	goto	u3011
  5665  000F9A  EFD1  F007         	goto	u3010
  5666  000F9E                     u3011:
  5667  000F9E  EFD3  F007         	goto	l810
  5668  000FA2                     u3010:
  5669  000FA2  EFC6  F007         	goto	l3046
  5670  000FA6                     l810:
  5671  000FA6  5027               	movf	___fldiv@aexp^0,w,c
  5672  000FA8  B4D8               	btfsc	status,2,c
  5673  000FAA  EFD9  F007         	goto	u3021
  5674  000FAE  EFDB  F007         	goto	u3020
  5675  000FB2                     u3021:
  5676  000FB2  EFFF  F007         	goto	l3058
  5677  000FB6                     u3020:
  5678  000FB6  0E01               	movlw	1
  5679  000FB8  260F               	addwf	___fldiv@b^0,f,c
  5680  000FBA  0E00               	movlw	0
  5681  000FBC  2210               	addwfc	(___fldiv@b+1)^0,f,c
  5682  000FBE  2211               	addwfc	(___fldiv@b+2)^0,f,c
  5683  000FC0  2212               	addwfc	(___fldiv@b+3)^0,f,c
  5684  000FC2  A012               	btfss	(___fldiv@b+3)^0,0,c
  5685  000FC4  EFE6  F007         	goto	u3031
  5686  000FC8  EFE8  F007         	goto	u3030
  5687  000FCC                     u3031:
  5688  000FCC  EFFF  F007         	goto	l3058
  5689  000FD0                     u3030:
  5690  000FD0  C00F  F017         	movff	___fldiv@b,??___fldiv
  5691  000FD4  C010  F018         	movff	___fldiv@b+1,??___fldiv+1
  5692  000FD8  C011  F019         	movff	___fldiv@b+2,??___fldiv+2
  5693  000FDC  C012  F01A         	movff	___fldiv@b+3,??___fldiv+3
  5694  000FE0  341A               	rlcf	(??___fldiv+3)^0,w,c
  5695  000FE2  321A               	rrcf	(??___fldiv+3)^0,f,c
  5696  000FE4  3219               	rrcf	(??___fldiv+2)^0,f,c
  5697  000FE6  3218               	rrcf	(??___fldiv+1)^0,f,c
  5698  000FE8  3217               	rrcf	??___fldiv^0,f,c
  5699  000FEA  C017  F00F         	movff	??___fldiv,___fldiv@b
  5700  000FEE  C018  F010         	movff	??___fldiv+1,___fldiv@b+1
  5701  000FF2  C019  F011         	movff	??___fldiv+2,___fldiv@b+2
  5702  000FF6  C01A  F012         	movff	??___fldiv+3,___fldiv@b+3
  5703  000FFA  4A20               	infsnz	___fldiv@new_exp^0,f,c
  5704  000FFC  2A21               	incf	(___fldiv@new_exp+1)^0,f,c
  5705  000FFE                     l3058:
  5706  000FFE  BE21               	btfsc	(___fldiv@new_exp+1)^0,7,c
  5707  001000  EF0A  F008         	goto	u3041
  5708  001004  5021               	movf	(___fldiv@new_exp+1)^0,w,c
  5709  001006  E108               	bnz	u3040
  5710  001008  2820               	incf	___fldiv@new_exp^0,w,c
  5711  00100A  A0D8               	btfss	status,0,c
  5712  00100C  EF0A  F008         	goto	u3041
  5713  001010  EF0C  F008         	goto	u3040
  5714  001014                     u3041:
  5715  001014  EF17  F008         	goto	l3062
  5716  001018                     u3040:
  5717  001018  0E00               	movlw	0
  5718  00101A  6E21               	movwf	(___fldiv@new_exp+1)^0,c
  5719  00101C  6820               	setf	___fldiv@new_exp^0,c
  5720  00101E  0E00               	movlw	0
  5721  001020  6E0F               	movwf	___fldiv@b^0,c
  5722  001022  0E00               	movlw	0
  5723  001024  6E10               	movwf	(___fldiv@b+1)^0,c
  5724  001026  0E00               	movlw	0
  5725  001028  6E11               	movwf	(___fldiv@b+2)^0,c
  5726  00102A  0E00               	movlw	0
  5727  00102C  6E12               	movwf	(___fldiv@b+3)^0,c
  5728  00102E                     l3062:
  5729  00102E  BE21               	btfsc	(___fldiv@new_exp+1)^0,7,c
  5730  001030  EF24  F008         	goto	u3050
  5731  001034  5021               	movf	(___fldiv@new_exp+1)^0,w,c
  5732  001036  E106               	bnz	u3051
  5733  001038  0420               	decf	___fldiv@new_exp^0,w,c
  5734  00103A  B0D8               	btfsc	status,0,c
  5735  00103C  EF22  F008         	goto	u3051
  5736  001040  EF24  F008         	goto	u3050
  5737  001044                     u3051:
  5738  001044  EF32  F008         	goto	l3066
  5739  001048                     u3050:
  5740  001048  0E00               	movlw	0
  5741  00104A  6E21               	movwf	(___fldiv@new_exp+1)^0,c
  5742  00104C  0E00               	movlw	0
  5743  00104E  6E20               	movwf	___fldiv@new_exp^0,c
  5744  001050  0E00               	movlw	0
  5745  001052  6E0F               	movwf	___fldiv@b^0,c
  5746  001054  0E00               	movlw	0
  5747  001056  6E10               	movwf	(___fldiv@b+1)^0,c
  5748  001058  0E00               	movlw	0
  5749  00105A  6E11               	movwf	(___fldiv@b+2)^0,c
  5750  00105C  0E00               	movlw	0
  5751  00105E  6E12               	movwf	(___fldiv@b+3)^0,c
  5752  001060  0E00               	movlw	0
  5753  001062  6E1F               	movwf	___fldiv@sign^0,c
  5754  001064                     l3066:
  5755  001064  C020  F026         	movff	___fldiv@new_exp,___fldiv@bexp
  5756  001068  A026               	btfss	___fldiv@bexp^0,0,c
  5757  00106A  EF39  F008         	goto	u3061
  5758  00106E  EF3B  F008         	goto	u3060
  5759  001072                     u3061:
  5760  001072  EF3E  F008         	goto	l3072
  5761  001076                     u3060:
  5762  001076  8E11               	bsf	(___fldiv@b+2)^0,7,c
  5763  001078  EF3F  F008         	goto	l3074
  5764  00107C                     l3072:
  5765  00107C  9E11               	bcf	(___fldiv@b+2)^0,7,c
  5766  00107E                     l3074:
  5767  00107E  90D8               	bcf	status,0,c
  5768  001080  3026               	rrcf	___fldiv@bexp^0,w,c
  5769  001082  6E12               	movwf	(___fldiv@b+3)^0,c
  5770  001084  EFF5  F006         	goto	l2988
  5771  001088                     l797:
  5772  001088  0012               	return		;funcret
  5773  00108A                     __end_of___fldiv:
  5774                           	callstack 0
  5775                           
  5776 ;; *************** function ___fladd *****************
  5777 ;; Defined at:
  5778 ;;		line 10 in file "C:\Program Files\Microchip\xc8\v2.36\pic\sources\c99\common\sprcadd.c"
  5779 ;; Parameters:    Size  Location     Type
  5780 ;;  b               4   39[COMRAM] unsigned char 
  5781 ;;  a               4   43[COMRAM] unsigned char 
  5782 ;; Auto vars:     Size  Location     Type
  5783 ;;  grs             1   54[COMRAM] unsigned char 
  5784 ;;  bexp            1   53[COMRAM] unsigned char 
  5785 ;;  aexp            1   52[COMRAM] unsigned char 
  5786 ;;  signs           1   51[COMRAM] unsigned char 
  5787 ;; Return value:  Size  Location     Type
  5788 ;;                  4   39[COMRAM] unsigned char 
  5789 ;; Registers used:
  5790 ;;		wreg, status,2, status,0
  5791 ;; Tracked objects:
  5792 ;;		On entry : 0/0
  5793 ;;		On exit  : 0/0
  5794 ;;		Unchanged: 0/0
  5795 ;; Data sizes:     COMRAM   BANK0   BANK1   BANK2   BANK3   BANK4   BANK5   BANK6   BANK7
  5796 ;;      Params:         8       0       0       0       0       0       0       0       0
  5797 ;;      Locals:         4       0       0       0       0       0       0       0       0
  5798 ;;      Temps:          4       0       0       0       0       0       0       0       0
  5799 ;;      Totals:        16       0       0       0       0       0       0       0       0
  5800 ;;Total ram usage:       16 bytes
  5801 ;; Hardware stack levels used: 1
  5802 ;; This function calls:
  5803 ;;		Nothing
  5804 ;; This function is called by:
  5805 ;;		_USART_Init
  5806 ;; This function uses a non-reentrant model
  5807 ;;
  5808                           
  5809                           	psect	text36
  5810  000830                     __ptext36:
  5811                           	callstack 0
  5812  000830                     ___fladd:
  5813                           	callstack 29
  5814  000830  502B               	movf	(___fladd@b+3)^0,w,c
  5815  000832  0B80               	andlw	128
  5816  000834  6E34               	movwf	___fladd@signs^0,c
  5817  000836  502B               	movf	(___fladd@b+3)^0,w,c
  5818  000838  242B               	addwf	(___fladd@b+3)^0,w,c
  5819  00083A  6E36               	movwf	___fladd@bexp^0,c
  5820  00083C  AE2A               	btfss	(___fladd@b+2)^0,7,c
  5821  00083E  EF23  F004         	goto	u2451
  5822  000842  EF25  F004         	goto	u2450
  5823  000846                     u2451:
  5824  000846  EF26  F004         	goto	l2748
  5825  00084A                     u2450:
  5826  00084A  8036               	bsf	___fladd@bexp^0,0,c
  5827  00084C                     l2748:
  5828  00084C  5036               	movf	___fladd@bexp^0,w,c
  5829  00084E  B4D8               	btfsc	status,2,c
  5830  000850  EF2C  F004         	goto	u2461
  5831  000854  EF2E  F004         	goto	u2460
  5832  000858                     u2461:
  5833  000858  EF43  F004         	goto	l2758
  5834  00085C                     u2460:
  5835  00085C  2836               	incf	___fladd@bexp^0,w,c
  5836  00085E  A4D8               	btfss	status,2,c
  5837  000860  EF34  F004         	goto	u2471
  5838  000864  EF36  F004         	goto	u2470
  5839  000868                     u2471:
  5840  000868  EF3E  F004         	goto	l2754
  5841  00086C                     u2470:
  5842  00086C  0E00               	movlw	0
  5843  00086E  6E28               	movwf	___fladd@b^0,c
  5844  000870  0E00               	movlw	0
  5845  000872  6E29               	movwf	(___fladd@b+1)^0,c
  5846  000874  0E00               	movlw	0
  5847  000876  6E2A               	movwf	(___fladd@b+2)^0,c
  5848  000878  0E00               	movlw	0
  5849  00087A  6E2B               	movwf	(___fladd@b+3)^0,c
  5850  00087C                     l2754:
  5851  00087C  8E2A               	bsf	(___fladd@b+2)^0,7,c
  5852  00087E  0E00               	movlw	0
  5853  000880  6E2B               	movwf	(___fladd@b+3)^0,c
  5854  000882  EF4B  F004         	goto	l2760
  5855  000886                     l2758:
  5856  000886  0E00               	movlw	0
  5857  000888  6E28               	movwf	___fladd@b^0,c
  5858  00088A  0E00               	movlw	0
  5859  00088C  6E29               	movwf	(___fladd@b+1)^0,c
  5860  00088E  0E00               	movlw	0
  5861  000890  6E2A               	movwf	(___fladd@b+2)^0,c
  5862  000892  0E00               	movlw	0
  5863  000894  6E2B               	movwf	(___fladd@b+3)^0,c
  5864  000896                     l2760:
  5865  000896  502F               	movf	(___fladd@a+3)^0,w,c
  5866  000898  0B80               	andlw	128
  5867  00089A  6E35               	movwf	___fladd@aexp^0,c
  5868  00089C  5034               	movf	___fladd@signs^0,w,c
  5869  00089E  1835               	xorwf	___fladd@aexp^0,w,c
  5870  0008A0  B4D8               	btfsc	status,2,c
  5871  0008A2  EF55  F004         	goto	u2481
  5872  0008A6  EF57  F004         	goto	u2480
  5873  0008AA                     u2481:
  5874  0008AA  EF58  F004         	goto	l2766
  5875  0008AE                     u2480:
  5876  0008AE  8C34               	bsf	___fladd@signs^0,6,c
  5877  0008B0                     l2766:
  5878  0008B0  502F               	movf	(___fladd@a+3)^0,w,c
  5879  0008B2  242F               	addwf	(___fladd@a+3)^0,w,c
  5880  0008B4  6E35               	movwf	___fladd@aexp^0,c
  5881  0008B6  AE2E               	btfss	(___fladd@a+2)^0,7,c
  5882  0008B8  EF60  F004         	goto	u2491
  5883  0008BC  EF62  F004         	goto	u2490
  5884  0008C0                     u2491:
  5885  0008C0  EF63  F004         	goto	l2772
  5886  0008C4                     u2490:
  5887  0008C4  8035               	bsf	___fladd@aexp^0,0,c
  5888  0008C6                     l2772:
  5889  0008C6  5035               	movf	___fladd@aexp^0,w,c
  5890  0008C8  B4D8               	btfsc	status,2,c
  5891  0008CA  EF69  F004         	goto	u2501
  5892  0008CE  EF6B  F004         	goto	u2500
  5893  0008D2                     u2501:
  5894  0008D2  EF80  F004         	goto	l2782
  5895  0008D6                     u2500:
  5896  0008D6  2835               	incf	___fladd@aexp^0,w,c
  5897  0008D8  A4D8               	btfss	status,2,c
  5898  0008DA  EF71  F004         	goto	u2511
  5899  0008DE  EF73  F004         	goto	u2510
  5900  0008E2                     u2511:
  5901  0008E2  EF7B  F004         	goto	l2778
  5902  0008E6                     u2510:
  5903  0008E6  0E00               	movlw	0
  5904  0008E8  6E2C               	movwf	___fladd@a^0,c
  5905  0008EA  0E00               	movlw	0
  5906  0008EC  6E2D               	movwf	(___fladd@a+1)^0,c
  5907  0008EE  0E00               	movlw	0
  5908  0008F0  6E2E               	movwf	(___fladd@a+2)^0,c
  5909  0008F2  0E00               	movlw	0
  5910  0008F4  6E2F               	movwf	(___fladd@a+3)^0,c
  5911  0008F6                     l2778:
  5912  0008F6  8E2E               	bsf	(___fladd@a+2)^0,7,c
  5913  0008F8  0E00               	movlw	0
  5914  0008FA  6E2F               	movwf	(___fladd@a+3)^0,c
  5915  0008FC  EF88  F004         	goto	l2784
  5916  000900                     l2782:
  5917  000900  0E00               	movlw	0
  5918  000902  6E2C               	movwf	___fladd@a^0,c
  5919  000904  0E00               	movlw	0
  5920  000906  6E2D               	movwf	(___fladd@a+1)^0,c
  5921  000908  0E00               	movlw	0
  5922  00090A  6E2E               	movwf	(___fladd@a+2)^0,c
  5923  00090C  0E00               	movlw	0
  5924  00090E  6E2F               	movwf	(___fladd@a+3)^0,c
  5925  000910                     l2784:
  5926  000910  5036               	movf	___fladd@bexp^0,w,c
  5927  000912  5C35               	subwf	___fladd@aexp^0,w,c
  5928  000914  B0D8               	btfsc	status,0,c
  5929  000916  EF8F  F004         	goto	u2521
  5930  00091A  EF91  F004         	goto	u2520
  5931  00091E                     u2521:
  5932  00091E  EFB8  F004         	goto	l2820
  5933  000922                     u2520:
  5934  000922  AC34               	btfss	___fladd@signs^0,6,c
  5935  000924  EF96  F004         	goto	u2531
  5936  000928  EF98  F004         	goto	u2530
  5937  00092C                     u2531:
  5938  00092C  EF9A  F004         	goto	l2790
  5939  000930                     u2530:
  5940  000930  0E80               	movlw	128
  5941  000932  1A34               	xorwf	___fladd@signs^0,f,c
  5942  000934                     l2790:
  5943  000934  C036  F037         	movff	___fladd@bexp,___fladd@grs
  5944  000938  C035  F036         	movff	___fladd@aexp,___fladd@bexp
  5945  00093C  C037  F035         	movff	___fladd@grs,___fladd@aexp
  5946  000940  C028  F037         	movff	___fladd@b,___fladd@grs
  5947  000944  C02C  F028         	movff	___fladd@a,___fladd@b
  5948  000948  C037  F02C         	movff	___fladd@grs,___fladd@a
  5949  00094C  C029  F037         	movff	___fladd@b+1,___fladd@grs
  5950  000950  C02D  F029         	movff	___fladd@a+1,___fladd@b+1
  5951  000954  C037  F02D         	movff	___fladd@grs,___fladd@a+1
  5952  000958  C02A  F037         	movff	___fladd@b+2,___fladd@grs
  5953  00095C  C02E  F02A         	movff	___fladd@a+2,___fladd@b+2
  5954  000960  C037  F02E         	movff	___fladd@grs,___fladd@a+2
  5955  000964  C02B  F037         	movff	___fladd@b+3,___fladd@grs
  5956  000968  C02F  F02B         	movff	___fladd@a+3,___fladd@b+3
  5957  00096C  C037  F02F         	movff	___fladd@grs,___fladd@a+3
  5958  000970                     l2820:
  5959  000970  0E00               	movlw	0
  5960  000972  6E37               	movwf	___fladd@grs^0,c
  5961  000974  5036               	movf	___fladd@bexp^0,w,c
  5962  000976  C035  F030         	movff	___fladd@aexp,??___fladd
  5963  00097A  6A31               	clrf	(??___fladd+1)^0,c
  5964  00097C  5E30               	subwf	??___fladd^0,f,c
  5965  00097E  0E00               	movlw	0
  5966  000980  5A31               	subwfb	(??___fladd+1)^0,f,c
  5967  000982  BE31               	btfsc	(??___fladd+1)^0,7,c
  5968  000984  EFCD  F004         	goto	u2541
  5969  000988  5031               	movf	(??___fladd+1)^0,w,c
  5970  00098A  E109               	bnz	u2540
  5971  00098C  0E1A               	movlw	26
  5972  00098E  5C30               	subwf	??___fladd^0,w,c
  5973  000990  A0D8               	btfss	status,0,c
  5974  000992  EFCD  F004         	goto	u2541
  5975  000996  EFCF  F004         	goto	u2540
  5976  00099A                     u2541:
  5977  00099A  EF06  F005         	goto	l744
  5978  00099E                     u2540:
  5979  00099E  5028               	movf	___fladd@b^0,w,c
  5980  0009A0  1029               	iorwf	(___fladd@b+1)^0,w,c
  5981  0009A2  102A               	iorwf	(___fladd@b+2)^0,w,c
  5982  0009A4  102B               	iorwf	(___fladd@b+3)^0,w,c
  5983  0009A6  A4D8               	btfss	status,2,c
  5984  0009A8  EFD8  F004         	goto	u2551
  5985  0009AC  EFDB  F004         	goto	u2550
  5986  0009B0                     u2551:
  5987  0009B0  0E01               	movlw	1
  5988  0009B2  EFDC  F004         	goto	u2560
  5989  0009B6                     u2550:
  5990  0009B6  0E00               	movlw	0
  5991  0009B8                     u2560:
  5992  0009B8  6E37               	movwf	___fladd@grs^0,c
  5993  0009BA  0E00               	movlw	0
  5994  0009BC  6E28               	movwf	___fladd@b^0,c
  5995  0009BE  0E00               	movlw	0
  5996  0009C0  6E29               	movwf	(___fladd@b+1)^0,c
  5997  0009C2  0E00               	movlw	0
  5998  0009C4  6E2A               	movwf	(___fladd@b+2)^0,c
  5999  0009C6  0E00               	movlw	0
  6000  0009C8  6E2B               	movwf	(___fladd@b+3)^0,c
  6001  0009CA  C035  F036         	movff	___fladd@aexp,___fladd@bexp
  6002  0009CE  EF0F  F005         	goto	l743
  6003  0009D2                     l745:
  6004  0009D2  A037               	btfss	___fladd@grs^0,0,c
  6005  0009D4  EFEE  F004         	goto	u2571
  6006  0009D8  EFF0  F004         	goto	u2570
  6007  0009DC                     u2571:
  6008  0009DC  EFF6  F004         	goto	l2832
  6009  0009E0                     u2570:
  6010  0009E0  90D8               	bcf	status,0,c
  6011  0009E2  3037               	rrcf	___fladd@grs^0,w,c
  6012  0009E4  0901               	iorlw	1
  6013  0009E6  6E37               	movwf	___fladd@grs^0,c
  6014  0009E8  EFF8  F004         	goto	l2834
  6015  0009EC                     l2832:
  6016  0009EC  90D8               	bcf	status,0,c
  6017  0009EE  3237               	rrcf	___fladd@grs^0,f,c
  6018  0009F0                     l2834:
  6019  0009F0  A028               	btfss	___fladd@b^0,0,c
  6020  0009F2  EFFD  F004         	goto	u2581
  6021  0009F6  EFFF  F004         	goto	u2580
  6022  0009FA                     u2581:
  6023  0009FA  EF00  F005         	goto	l2838
  6024  0009FE                     u2580:
  6025  0009FE  8E37               	bsf	___fladd@grs^0,7,c
  6026  000A00                     l2838:
  6027  000A00  342B               	rlcf	(___fladd@b+3)^0,w,c
  6028  000A02  322B               	rrcf	(___fladd@b+3)^0,f,c
  6029  000A04  322A               	rrcf	(___fladd@b+2)^0,f,c
  6030  000A06  3229               	rrcf	(___fladd@b+1)^0,f,c
  6031  000A08  3228               	rrcf	___fladd@b^0,f,c
  6032  000A0A  2A36               	incf	___fladd@bexp^0,f,c
  6033  000A0C                     l744:
  6034  000A0C  5035               	movf	___fladd@aexp^0,w,c
  6035  000A0E  5C36               	subwf	___fladd@bexp^0,w,c
  6036  000A10  A0D8               	btfss	status,0,c
  6037  000A12  EF0D  F005         	goto	u2591
  6038  000A16  EF0F  F005         	goto	u2590
  6039  000A1A                     u2591:
  6040  000A1A  EFE9  F004         	goto	l745
  6041  000A1E                     u2590:
  6042  000A1E                     l743:
  6043  000A1E  BC34               	btfsc	___fladd@signs^0,6,c
  6044  000A20  EF14  F005         	goto	u2601
  6045  000A24  EF16  F005         	goto	u2600
  6046  000A28                     u2601:
  6047  000A28  EF56  F005         	goto	l2866
  6048  000A2C                     u2600:
  6049  000A2C  5036               	movf	___fladd@bexp^0,w,c
  6050  000A2E  A4D8               	btfss	status,2,c
  6051  000A30  EF1C  F005         	goto	u2611
  6052  000A34  EF1E  F005         	goto	u2610
  6053  000A38                     u2611:
  6054  000A38  EF28  F005         	goto	l2848
  6055  000A3C                     u2610:
  6056  000A3C  0E00               	movlw	0
  6057  000A3E  6E28               	movwf	?___fladd^0,c
  6058  000A40  0E00               	movlw	0
  6059  000A42  6E29               	movwf	(?___fladd+1)^0,c
  6060  000A44  0E00               	movlw	0
  6061  000A46  6E2A               	movwf	(?___fladd+2)^0,c
  6062  000A48  0E00               	movlw	0
  6063  000A4A  6E2B               	movwf	(?___fladd+3)^0,c
  6064  000A4C  EF77  F006         	goto	l752
  6065  000A50                     l2848:
  6066  000A50  502C               	movf	___fladd@a^0,w,c
  6067  000A52  2628               	addwf	___fladd@b^0,f,c
  6068  000A54  502D               	movf	(___fladd@a+1)^0,w,c
  6069  000A56  2229               	addwfc	(___fladd@b+1)^0,f,c
  6070  000A58  502E               	movf	(___fladd@a+2)^0,w,c
  6071  000A5A  222A               	addwfc	(___fladd@b+2)^0,f,c
  6072  000A5C  502F               	movf	(___fladd@a+3)^0,w,c
  6073  000A5E  222B               	addwfc	(___fladd@b+3)^0,f,c
  6074  000A60  A02B               	btfss	(___fladd@b+3)^0,0,c
  6075  000A62  EF35  F005         	goto	u2621
  6076  000A66  EF37  F005         	goto	u2620
  6077  000A6A                     u2621:
  6078  000A6A  EFE3  F005         	goto	l2902
  6079  000A6E                     u2620:
  6080  000A6E  A037               	btfss	___fladd@grs^0,0,c
  6081  000A70  EF3C  F005         	goto	u2631
  6082  000A74  EF3E  F005         	goto	u2630
  6083  000A78                     u2631:
  6084  000A78  EF44  F005         	goto	l2856
  6085  000A7C                     u2630:
  6086  000A7C  90D8               	bcf	status,0,c
  6087  000A7E  3037               	rrcf	___fladd@grs^0,w,c
  6088  000A80  0901               	iorlw	1
  6089  000A82  6E37               	movwf	___fladd@grs^0,c
  6090  000A84  EF46  F005         	goto	l2858
  6091  000A88                     l2856:
  6092  000A88  90D8               	bcf	status,0,c
  6093  000A8A  3237               	rrcf	___fladd@grs^0,f,c
  6094  000A8C                     l2858:
  6095  000A8C  A028               	btfss	___fladd@b^0,0,c
  6096  000A8E  EF4B  F005         	goto	u2641
  6097  000A92  EF4D  F005         	goto	u2640
  6098  000A96                     u2641:
  6099  000A96  EF4E  F005         	goto	l2862
  6100  000A9A                     u2640:
  6101  000A9A  8E37               	bsf	___fladd@grs^0,7,c
  6102  000A9C                     l2862:
  6103  000A9C  342B               	rlcf	(___fladd@b+3)^0,w,c
  6104  000A9E  322B               	rrcf	(___fladd@b+3)^0,f,c
  6105  000AA0  322A               	rrcf	(___fladd@b+2)^0,f,c
  6106  000AA2  3229               	rrcf	(___fladd@b+1)^0,f,c
  6107  000AA4  3228               	rrcf	___fladd@b^0,f,c
  6108  000AA6  2A36               	incf	___fladd@bexp^0,f,c
  6109  000AA8  EFE3  F005         	goto	l2902
  6110  000AAC                     l2866:
  6111  000AAC  502C               	movf	___fladd@a^0,w,c
  6112  000AAE  5C28               	subwf	___fladd@b^0,w,c
  6113  000AB0  502D               	movf	(___fladd@a+1)^0,w,c
  6114  000AB2  5829               	subwfb	(___fladd@b+1)^0,w,c
  6115  000AB4  502E               	movf	(___fladd@a+2)^0,w,c
  6116  000AB6  582A               	subwfb	(___fladd@b+2)^0,w,c
  6117  000AB8  502B               	movf	(___fladd@b+3)^0,w,c
  6118  000ABA  0A80               	xorlw	128
  6119  000ABC  6E30               	movwf	??___fladd^0,c
  6120  000ABE  502F               	movf	(___fladd@a+3)^0,w,c
  6121  000AC0  0A80               	xorlw	128
  6122  000AC2  5830               	subwfb	??___fladd^0,w,c
  6123  000AC4  B0D8               	btfsc	status,0,c
  6124  000AC6  EF67  F005         	goto	u2651
  6125  000ACA  EF69  F005         	goto	u2650
  6126  000ACE                     u2651:
  6127  000ACE  EF94  F005         	goto	l2876
  6128  000AD2                     u2650:
  6129  000AD2  5028               	movf	___fladd@b^0,w,c
  6130  000AD4  5C2C               	subwf	___fladd@a^0,w,c
  6131  000AD6  6E30               	movwf	??___fladd^0,c
  6132  000AD8  5029               	movf	(___fladd@b+1)^0,w,c
  6133  000ADA  582D               	subwfb	(___fladd@a+1)^0,w,c
  6134  000ADC  6E31               	movwf	(??___fladd+1)^0,c
  6135  000ADE  502A               	movf	(___fladd@b+2)^0,w,c
  6136  000AE0  582E               	subwfb	(___fladd@a+2)^0,w,c
  6137  000AE2  6E32               	movwf	(??___fladd+2)^0,c
  6138  000AE4  502B               	movf	(___fladd@b+3)^0,w,c
  6139  000AE6  582F               	subwfb	(___fladd@a+3)^0,w,c
  6140  000AE8  6E33               	movwf	(??___fladd+3)^0,c
  6141  000AEA  0EFF               	movlw	255
  6142  000AEC  2430               	addwf	??___fladd^0,w,c
  6143  000AEE  6E28               	movwf	___fladd@b^0,c
  6144  000AF0  0EFF               	movlw	255
  6145  000AF2  2031               	addwfc	(??___fladd+1)^0,w,c
  6146  000AF4  6E29               	movwf	(___fladd@b+1)^0,c
  6147  000AF6  0EFF               	movlw	255
  6148  000AF8  2032               	addwfc	(??___fladd+2)^0,w,c
  6149  000AFA  6E2A               	movwf	(___fladd@b+2)^0,c
  6150  000AFC  0EFF               	movlw	255
  6151  000AFE  2033               	addwfc	(??___fladd+3)^0,w,c
  6152  000B00  6E2B               	movwf	(___fladd@b+3)^0,c
  6153  000B02  0E80               	movlw	128
  6154  000B04  1A34               	xorwf	___fladd@signs^0,f,c
  6155  000B06  6C37               	negf	___fladd@grs^0,c
  6156  000B08  5037               	movf	___fladd@grs^0,w,c
  6157  000B0A  A4D8               	btfss	status,2,c
  6158  000B0C  EF8A  F005         	goto	u2661
  6159  000B10  EF8C  F005         	goto	u2660
  6160  000B14                     u2661:
  6161  000B14  EF9C  F005         	goto	l760
  6162  000B18                     u2660:
  6163  000B18  0E01               	movlw	1
  6164  000B1A  2628               	addwf	___fladd@b^0,f,c
  6165  000B1C  0E00               	movlw	0
  6166  000B1E  2229               	addwfc	(___fladd@b+1)^0,f,c
  6167  000B20  222A               	addwfc	(___fladd@b+2)^0,f,c
  6168  000B22  222B               	addwfc	(___fladd@b+3)^0,f,c
  6169  000B24  EF9C  F005         	goto	l760
  6170  000B28                     l2876:
  6171  000B28  502C               	movf	___fladd@a^0,w,c
  6172  000B2A  5E28               	subwf	___fladd@b^0,f,c
  6173  000B2C  502D               	movf	(___fladd@a+1)^0,w,c
  6174  000B2E  5A29               	subwfb	(___fladd@b+1)^0,f,c
  6175  000B30  502E               	movf	(___fladd@a+2)^0,w,c
  6176  000B32  5A2A               	subwfb	(___fladd@b+2)^0,f,c
  6177  000B34  502F               	movf	(___fladd@a+3)^0,w,c
  6178  000B36  5A2B               	subwfb	(___fladd@b+3)^0,f,c
  6179  000B38                     l760:
  6180  000B38  5028               	movf	___fladd@b^0,w,c
  6181  000B3A  1029               	iorwf	(___fladd@b+1)^0,w,c
  6182  000B3C  102A               	iorwf	(___fladd@b+2)^0,w,c
  6183  000B3E  102B               	iorwf	(___fladd@b+3)^0,w,c
  6184  000B40  A4D8               	btfss	status,2,c
  6185  000B42  EFA5  F005         	goto	u2671
  6186  000B46  EFA7  F005         	goto	u2670
  6187  000B4A                     u2671:
  6188  000B4A  EFDC  F005         	goto	l2900
  6189  000B4E                     u2670:
  6190  000B4E  5037               	movf	___fladd@grs^0,w,c
  6191  000B50  A4D8               	btfss	status,2,c
  6192  000B52  EFAD  F005         	goto	u2681
  6193  000B56  EFAF  F005         	goto	u2680
  6194  000B5A                     u2681:
  6195  000B5A  EFDC  F005         	goto	l2900
  6196  000B5E                     u2680:
  6197  000B5E  0E00               	movlw	0
  6198  000B60  6E28               	movwf	?___fladd^0,c
  6199  000B62  0E00               	movlw	0
  6200  000B64  6E29               	movwf	(?___fladd+1)^0,c
  6201  000B66  0E00               	movlw	0
  6202  000B68  6E2A               	movwf	(?___fladd+2)^0,c
  6203  000B6A  0E00               	movlw	0
  6204  000B6C  6E2B               	movwf	(?___fladd+3)^0,c
  6205  000B6E  EF77  F006         	goto	l752
  6206  000B72                     l2884:
  6207  000B72  90D8               	bcf	status,0,c
  6208  000B74  3628               	rlcf	___fladd@b^0,f,c
  6209  000B76  3629               	rlcf	(___fladd@b+1)^0,f,c
  6210  000B78  362A               	rlcf	(___fladd@b+2)^0,f,c
  6211  000B7A  362B               	rlcf	(___fladd@b+3)^0,f,c
  6212  000B7C  AE37               	btfss	___fladd@grs^0,7,c
  6213  000B7E  EFC3  F005         	goto	u2691
  6214  000B82  EFC5  F005         	goto	u2690
  6215  000B86                     u2691:
  6216  000B86  EFC6  F005         	goto	l2890
  6217  000B8A                     u2690:
  6218  000B8A  8028               	bsf	___fladd@b^0,0,c
  6219  000B8C                     l2890:
  6220  000B8C  A037               	btfss	___fladd@grs^0,0,c
  6221  000B8E  EFCB  F005         	goto	u2701
  6222  000B92  EFCD  F005         	goto	u2700
  6223  000B96                     u2701:
  6224  000B96  EFD1  F005         	goto	l2894
  6225  000B9A                     u2700:
  6226  000B9A  80D8               	bsf	status,0,c
  6227  000B9C  3637               	rlcf	___fladd@grs^0,f,c
  6228  000B9E  EFD3  F005         	goto	l2896
  6229  000BA2                     l2894:
  6230  000BA2  90D8               	bcf	status,0,c
  6231  000BA4  3637               	rlcf	___fladd@grs^0,f,c
  6232  000BA6                     l2896:
  6233  000BA6  5036               	movf	___fladd@bexp^0,w,c
  6234  000BA8  B4D8               	btfsc	status,2,c
  6235  000BAA  EFD9  F005         	goto	u2711
  6236  000BAE  EFDB  F005         	goto	u2710
  6237  000BB2                     u2711:
  6238  000BB2  EFDC  F005         	goto	l2900
  6239  000BB6                     u2710:
  6240  000BB6  0636               	decf	___fladd@bexp^0,f,c
  6241  000BB8                     l2900:
  6242  000BB8  AE2A               	btfss	(___fladd@b+2)^0,7,c
  6243  000BBA  EFE1  F005         	goto	u2721
  6244  000BBE  EFE3  F005         	goto	u2720
  6245  000BC2                     u2721:
  6246  000BC2  EFB9  F005         	goto	l2884
  6247  000BC6                     u2720:
  6248  000BC6                     l2902:
  6249  000BC6  0E00               	movlw	0
  6250  000BC8  6E35               	movwf	___fladd@aexp^0,c
  6251  000BCA  AE37               	btfss	___fladd@grs^0,7,c
  6252  000BCC  EFEA  F005         	goto	u2731
  6253  000BD0  EFEC  F005         	goto	u2730
  6254  000BD4                     u2731:
  6255  000BD4  EF04  F006         	goto	l769
  6256  000BD8                     u2730:
  6257  000BD8  C037  F030         	movff	___fladd@grs,??___fladd
  6258  000BDC  0E7F               	movlw	127
  6259  000BDE  1630               	andwf	??___fladd^0,f,c
  6260  000BE0  B4D8               	btfsc	status,2,c
  6261  000BE2  EFF5  F005         	goto	u2741
  6262  000BE6  EFF7  F005         	goto	u2740
  6263  000BEA                     u2741:
  6264  000BEA  EFFB  F005         	goto	l770
  6265  000BEE                     u2740:
  6266  000BEE                     l2908:
  6267  000BEE  0E01               	movlw	1
  6268  000BF0  6E35               	movwf	___fladd@aexp^0,c
  6269  000BF2  EF04  F006         	goto	l769
  6270  000BF6                     l770:
  6271  000BF6  A028               	btfss	___fladd@b^0,0,c
  6272  000BF8  EF00  F006         	goto	u2751
  6273  000BFC  EF02  F006         	goto	u2750
  6274  000C00                     u2751:
  6275  000C00  EF04  F006         	goto	l769
  6276  000C04                     u2750:
  6277  000C04  EFF7  F005         	goto	l2908
  6278  000C08                     l769:
  6279  000C08  5035               	movf	___fladd@aexp^0,w,c
  6280  000C0A  B4D8               	btfsc	status,2,c
  6281  000C0C  EF0A  F006         	goto	u2761
  6282  000C10  EF0C  F006         	goto	u2760
  6283  000C14                     u2761:
  6284  000C14  EF37  F006         	goto	l2920
  6285  000C18                     u2760:
  6286  000C18  0E01               	movlw	1
  6287  000C1A  2628               	addwf	___fladd@b^0,f,c
  6288  000C1C  0E00               	movlw	0
  6289  000C1E  2229               	addwfc	(___fladd@b+1)^0,f,c
  6290  000C20  222A               	addwfc	(___fladd@b+2)^0,f,c
  6291  000C22  222B               	addwfc	(___fladd@b+3)^0,f,c
  6292  000C24  A02B               	btfss	(___fladd@b+3)^0,0,c
  6293  000C26  EF17  F006         	goto	u2771
  6294  000C2A  EF19  F006         	goto	u2770
  6295  000C2E                     u2771:
  6296  000C2E  EF37  F006         	goto	l2920
  6297  000C32                     u2770:
  6298  000C32  C028  F030         	movff	___fladd@b,??___fladd
  6299  000C36  C029  F031         	movff	___fladd@b+1,??___fladd+1
  6300  000C3A  C02A  F032         	movff	___fladd@b+2,??___fladd+2
  6301  000C3E  C02B  F033         	movff	___fladd@b+3,??___fladd+3
  6302  000C42  3433               	rlcf	(??___fladd+3)^0,w,c
  6303  000C44  3233               	rrcf	(??___fladd+3)^0,f,c
  6304  000C46  3232               	rrcf	(??___fladd+2)^0,f,c
  6305  000C48  3231               	rrcf	(??___fladd+1)^0,f,c
  6306  000C4A  3230               	rrcf	??___fladd^0,f,c
  6307  000C4C  C030  F028         	movff	??___fladd,___fladd@b
  6308  000C50  C031  F029         	movff	??___fladd+1,___fladd@b+1
  6309  000C54  C032  F02A         	movff	??___fladd+2,___fladd@b+2
  6310  000C58  C033  F02B         	movff	??___fladd+3,___fladd@b+3
  6311  000C5C  2836               	incf	___fladd@bexp^0,w,c
  6312  000C5E  B4D8               	btfsc	status,2,c
  6313  000C60  EF34  F006         	goto	u2781
  6314  000C64  EF36  F006         	goto	u2780
  6315  000C68                     u2781:
  6316  000C68  EF37  F006         	goto	l2920
  6317  000C6C                     u2780:
  6318  000C6C  2A36               	incf	___fladd@bexp^0,f,c
  6319  000C6E                     l2920:
  6320  000C6E  2836               	incf	___fladd@bexp^0,w,c
  6321  000C70  B4D8               	btfsc	status,2,c
  6322  000C72  EF3D  F006         	goto	u2791
  6323  000C76  EF3F  F006         	goto	u2790
  6324  000C7A                     u2791:
  6325  000C7A  EF47  F006         	goto	l2924
  6326  000C7E                     u2790:
  6327  000C7E  5036               	movf	___fladd@bexp^0,w,c
  6328  000C80  A4D8               	btfss	status,2,c
  6329  000C82  EF45  F006         	goto	u2801
  6330  000C86  EF47  F006         	goto	u2800
  6331  000C8A                     u2801:
  6332  000C8A  EF59  F006         	goto	l2928
  6333  000C8E                     u2800:
  6334  000C8E                     l2924:
  6335  000C8E  0E00               	movlw	0
  6336  000C90  6E28               	movwf	___fladd@b^0,c
  6337  000C92  0E00               	movlw	0
  6338  000C94  6E29               	movwf	(___fladd@b+1)^0,c
  6339  000C96  0E00               	movlw	0
  6340  000C98  6E2A               	movwf	(___fladd@b+2)^0,c
  6341  000C9A  0E00               	movlw	0
  6342  000C9C  6E2B               	movwf	(___fladd@b+3)^0,c
  6343  000C9E  5036               	movf	___fladd@bexp^0,w,c
  6344  000CA0  A4D8               	btfss	status,2,c
  6345  000CA2  EF55  F006         	goto	u2811
  6346  000CA6  EF57  F006         	goto	u2810
  6347  000CAA                     u2811:
  6348  000CAA  EF59  F006         	goto	l2928
  6349  000CAE                     u2810:
  6350  000CAE  0E00               	movlw	0
  6351  000CB0  6E34               	movwf	___fladd@signs^0,c
  6352  000CB2                     l2928:
  6353  000CB2  A036               	btfss	___fladd@bexp^0,0,c
  6354  000CB4  EF5E  F006         	goto	u2821
  6355  000CB8  EF60  F006         	goto	u2820
  6356  000CBC                     u2821:
  6357  000CBC  EF63  F006         	goto	l2932
  6358  000CC0                     u2820:
  6359  000CC0  8E2A               	bsf	(___fladd@b+2)^0,7,c
  6360  000CC2  EF64  F006         	goto	l2934
  6361  000CC6                     l2932:
  6362  000CC6  9E2A               	bcf	(___fladd@b+2)^0,7,c
  6363  000CC8                     l2934:
  6364  000CC8  90D8               	bcf	status,0,c
  6365  000CCA  3036               	rrcf	___fladd@bexp^0,w,c
  6366  000CCC  6E2B               	movwf	(___fladd@b+3)^0,c
  6367  000CCE  AE34               	btfss	___fladd@signs^0,7,c
  6368  000CD0  EF6C  F006         	goto	u2831
  6369  000CD4  EF6E  F006         	goto	u2830
  6370  000CD8                     u2831:
  6371  000CD8  EF6F  F006         	goto	l2940
  6372  000CDC                     u2830:
  6373  000CDC  8E2B               	bsf	(___fladd@b+3)^0,7,c
  6374  000CDE                     l2940:
  6375  000CDE  C028  F028         	movff	___fladd@b,?___fladd
  6376  000CE2  C029  F029         	movff	___fladd@b+1,?___fladd+1
  6377  000CE6  C02A  F02A         	movff	___fladd@b+2,?___fladd+2
  6378  000CEA  C02B  F02B         	movff	___fladd@b+3,?___fladd+3
  6379  000CEE                     l752:
  6380  000CEE  0012               	return		;funcret
  6381  000CF0                     __end_of___fladd:
  6382                           	callstack 0
  6383                           
  6384 ;; *************** function _Timer1_Init *****************
  6385 ;; Defined at:
  6386 ;;		line 263 in file "mainPic1.c"
  6387 ;; Parameters:    Size  Location     Type
  6388 ;;		None
  6389 ;; Auto vars:     Size  Location     Type
  6390 ;;		None
  6391 ;; Return value:  Size  Location     Type
  6392 ;;                  1    wreg      void 
  6393 ;; Registers used:
  6394 ;;		wreg, status,2
  6395 ;; Tracked objects:
  6396 ;;		On entry : 0/0
  6397 ;;		On exit  : 0/0
  6398 ;;		Unchanged: 0/0
  6399 ;; Data sizes:     COMRAM   BANK0   BANK1   BANK2   BANK3   BANK4   BANK5   BANK6   BANK7
  6400 ;;      Params:         0       0       0       0       0       0       0       0       0
  6401 ;;      Locals:         0       0       0       0       0       0       0       0       0
  6402 ;;      Temps:          0       0       0       0       0       0       0       0       0
  6403 ;;      Totals:         0       0       0       0       0       0       0       0       0
  6404 ;;Total ram usage:        0 bytes
  6405 ;; Hardware stack levels used: 1
  6406 ;; This function calls:
  6407 ;;		Nothing
  6408 ;; This function is called by:
  6409 ;;		_main
  6410 ;; This function uses a non-reentrant model
  6411 ;;
  6412                           
  6413                           	psect	text37
  6414  0027FC                     __ptext37:
  6415                           	callstack 0
  6416  0027FC                     _Timer1_Init:
  6417                           	callstack 30
  6418  0027FC                     
  6419                           ;mainPic1.c: 264:     T1CONbits.RD16=1;
  6420  0027FC  8ECD               	bsf	205,7,c	;volatile
  6421  0027FE                     
  6422                           ;mainPic1.c: 265:     T1CONbits.T1CKPS=0b00;
  6423  0027FE  0ECF               	movlw	-49
  6424  002800  16CD               	andwf	205,f,c	;volatile
  6425  002802                     
  6426                           ;mainPic1.c: 266:     T1CONbits.TMR1CS=0;
  6427  002802  92CD               	bcf	205,1,c	;volatile
  6428                           
  6429                           ;mainPic1.c: 267:     TMR1=0;
  6430  002804  0E00               	movlw	0
  6431  002806  6ECF               	movwf	207,c	;volatile
  6432  002808  0E00               	movlw	0
  6433  00280A  6ECE               	movwf	206,c	;volatile
  6434  00280C                     
  6435                           ;mainPic1.c: 268:     TMR1ON=0;
  6436  00280C  90CD               	bcf	4045,0,c	;volatile
  6437  00280E  0012               	return		;funcret
  6438  002810                     __end_of_Timer1_Init:
  6439                           	callstack 0
  6440                           
  6441 ;; *************** function _Configuracion_Registros *****************
  6442 ;; Defined at:
  6443 ;;		line 246 in file "mainPic1.c"
  6444 ;; Parameters:    Size  Location     Type
  6445 ;;		None
  6446 ;; Auto vars:     Size  Location     Type
  6447 ;;		None
  6448 ;; Return value:  Size  Location     Type
  6449 ;;                  1    wreg      void 
  6450 ;; Registers used:
  6451 ;;		wreg, status,2, status,0
  6452 ;; Tracked objects:
  6453 ;;		On entry : 0/0
  6454 ;;		On exit  : 0/0
  6455 ;;		Unchanged: 0/0
  6456 ;; Data sizes:     COMRAM   BANK0   BANK1   BANK2   BANK3   BANK4   BANK5   BANK6   BANK7
  6457 ;;      Params:         0       0       0       0       0       0       0       0       0
  6458 ;;      Locals:         0       0       0       0       0       0       0       0       0
  6459 ;;      Temps:          0       0       0       0       0       0       0       0       0
  6460 ;;      Totals:         0       0       0       0       0       0       0       0       0
  6461 ;;Total ram usage:        0 bytes
  6462 ;; Hardware stack levels used: 1
  6463 ;; This function calls:
  6464 ;;		Nothing
  6465 ;; This function is called by:
  6466 ;;		_main
  6467 ;; This function uses a non-reentrant model
  6468 ;;
  6469                           
  6470                           	psect	text38
  6471  002810                     __ptext38:
  6472                           	callstack 0
  6473  002810                     _Configuracion_Registros:
  6474                           	callstack 30
  6475  002810                     
  6476                           ;mainPic1.c: 247:     ADCON1bits.PCFG=0b1111;
  6477  002810  0E0F               	movlw	15
  6478  002812  12C1               	iorwf	193,f,c	;volatile
  6479  002814                     
  6480                           ;mainPic1.c: 248:     TRISA&=~(1<<0);
  6481  002814  9092               	bcf	146,0,c	;volatile
  6482  002816                     
  6483                           ;mainPic1.c: 249:     TRISA|=(1<<1);
  6484  002816  8292               	bsf	146,1,c	;volatile
  6485  002818  0012               	return		;funcret
  6486  00281A                     __end_of_Configuracion_Registros:
  6487                           	callstack 0
  6488                           
  6489                           	psect	rparam
  6490  0000                     
  6491                           	psect	idloc
  6492                           
  6493                           ;Config register IDLOC0 @ 0x200000
  6494                           ;	unspecified, using default values
  6495  200000                     	org	2097152
  6496  200000  FF                 	db	255
  6497                           
  6498                           ;Config register IDLOC1 @ 0x200001
  6499                           ;	unspecified, using default values
  6500  200001                     	org	2097153
  6501  200001  FF                 	db	255
  6502                           
  6503                           ;Config register IDLOC2 @ 0x200002
  6504                           ;	unspecified, using default values
  6505  200002                     	org	2097154
  6506  200002  FF                 	db	255
  6507                           
  6508                           ;Config register IDLOC3 @ 0x200003
  6509                           ;	unspecified, using default values
  6510  200003                     	org	2097155
  6511  200003  FF                 	db	255
  6512                           
  6513                           ;Config register IDLOC4 @ 0x200004
  6514                           ;	unspecified, using default values
  6515  200004                     	org	2097156
  6516  200004  FF                 	db	255
  6517                           
  6518                           ;Config register IDLOC5 @ 0x200005
  6519                           ;	unspecified, using default values
  6520  200005                     	org	2097157
  6521  200005  FF                 	db	255
  6522                           
  6523                           ;Config register IDLOC6 @ 0x200006
  6524                           ;	unspecified, using default values
  6525  200006                     	org	2097158
  6526  200006  FF                 	db	255
  6527                           
  6528                           ;Config register IDLOC7 @ 0x200007
  6529                           ;	unspecified, using default values
  6530  200007                     	org	2097159
  6531  200007  FF                 	db	255
  6532                           
  6533                           	psect	config
  6534                           
  6535                           ;Config register CONFIG1L @ 0x300000
  6536                           ;	PLL Prescaler Selection bits
  6537                           ;	PLLDIV = 1, No prescale (4 MHz oscillator input drives PLL directly)
  6538                           ;	System Clock Postscaler Selection bits
  6539                           ;	CPUDIV = OSC1_PLL2, [Primary Oscillator Src: /1][96 MHz PLL Src: /2]
  6540                           ;	USB Clock Selection bit (used in Full-Speed USB mode only; UCFG:FSEN = 1)
  6541                           ;	USBDIV = 1, USB clock source comes directly from the primary oscillator block with no 
      +                          postscale
  6542  300000                     	org	3145728
  6543  300000  00                 	db	0
  6544                           
  6545                           ;Config register CONFIG1H @ 0x300001
  6546                           ;	Oscillator Selection bits
  6547                           ;	FOSC = INTOSC_XT, Internal oscillator, XT used by USB (INTXT)
  6548                           ;	Fail-Safe Clock Monitor Enable bit
  6549                           ;	FCMEN = OFF, Fail-Safe Clock Monitor disabled
  6550                           ;	Internal/External Oscillator Switchover bit
  6551                           ;	IESO = OFF, Oscillator Switchover mode disabled
  6552  300001                     	org	3145729
  6553  300001  0A                 	db	10
  6554                           
  6555                           ;Config register CONFIG2L @ 0x300002
  6556                           ;	Power-up Timer Enable bit
  6557                           ;	PWRT = OFF, PWRT disabled
  6558                           ;	Brown-out Reset Enable bits
  6559                           ;	BOR = ON, Brown-out Reset enabled in hardware only (SBOREN is disabled)
  6560                           ;	Brown-out Reset Voltage bits
  6561                           ;	BORV = 3, Minimum setting 2.05V
  6562                           ;	USB Voltage Regulator Enable bit
  6563                           ;	VREGEN = OFF, USB voltage regulator disabled
  6564  300002                     	org	3145730
  6565  300002  1F                 	db	31
  6566                           
  6567                           ;Config register CONFIG2H @ 0x300003
  6568                           ;	Watchdog Timer Enable bit
  6569                           ;	WDT = OFF, WDT disabled (control is placed on the SWDTEN bit)
  6570                           ;	Watchdog Timer Postscale Select bits
  6571                           ;	WDTPS = 32768, 1:32768
  6572  300003                     	org	3145731
  6573  300003  1E                 	db	30
  6574                           
  6575                           ; Padding undefined space
  6576  300004                     	org	3145732
  6577  300004  FF                 	db	255
  6578                           
  6579                           ;Config register CONFIG3H @ 0x300005
  6580                           ;	CCP2 MUX bit
  6581                           ;	CCP2MX = ON, CCP2 input/output is multiplexed with RC1
  6582                           ;	PORTB A/D Enable bit
  6583                           ;	PBADEN = ON, PORTB<4:0> pins are configured as analog input channels on Reset
  6584                           ;	Low-Power Timer 1 Oscillator Enable bit
  6585                           ;	LPT1OSC = OFF, Timer1 configured for higher power operation
  6586                           ;	MCLR Pin Enable bit
  6587                           ;	MCLRE = ON, MCLR pin enabled; RE3 input pin disabled
  6588  300005                     	org	3145733
  6589  300005  83                 	db	131
  6590                           
  6591                           ;Config register CONFIG4L @ 0x300006
  6592                           ;	Stack Full/Underflow Reset Enable bit
  6593                           ;	STVREN = ON, Stack full/underflow will cause Reset
  6594                           ;	Single-Supply ICSP Enable bit
  6595                           ;	LVP = ON, Single-Supply ICSP enabled
  6596                           ;	Dedicated In-Circuit Debug/Programming Port (ICPORT) Enable bit
  6597                           ;	ICPRT = OFF, ICPORT disabled
  6598                           ;	Extended Instruction Set Enable bit
  6599                           ;	XINST = OFF, Instruction set extension and Indexed Addressing mode disabled (Legacy mo
      +                          de)
  6600                           ;	Background Debugger Enable bit
  6601                           ;	DEBUG = 0x1, unprogrammed default
  6602  300006                     	org	3145734
  6603  300006  85                 	db	133
  6604                           
  6605                           ; Padding undefined space
  6606  300007                     	org	3145735
  6607  300007  FF                 	db	255
  6608                           
  6609                           ;Config register CONFIG5L @ 0x300008
  6610                           ;	Code Protection bit
  6611                           ;	CP0 = OFF, Block 0 (000800-001FFFh) is not code-protected
  6612                           ;	Code Protection bit
  6613                           ;	CP1 = OFF, Block 1 (002000-003FFFh) is not code-protected
  6614                           ;	Code Protection bit
  6615                           ;	CP2 = OFF, Block 2 (004000-005FFFh) is not code-protected
  6616                           ;	Code Protection bit
  6617                           ;	CP3 = OFF, Block 3 (006000-007FFFh) is not code-protected
  6618  300008                     	org	3145736
  6619  300008  0F                 	db	15
  6620                           
  6621                           ;Config register CONFIG5H @ 0x300009
  6622                           ;	Boot Block Code Protection bit
  6623                           ;	CPB = OFF, Boot block (000000-0007FFh) is not code-protected
  6624                           ;	Data EEPROM Code Protection bit
  6625                           ;	CPD = OFF, Data EEPROM is not code-protected
  6626  300009                     	org	3145737
  6627  300009  C0                 	db	192
  6628                           
  6629                           ;Config register CONFIG6L @ 0x30000A
  6630                           ;	Write Protection bit
  6631                           ;	WRT0 = OFF, Block 0 (000800-001FFFh) is not write-protected
  6632                           ;	Write Protection bit
  6633                           ;	WRT1 = OFF, Block 1 (002000-003FFFh) is not write-protected
  6634                           ;	Write Protection bit
  6635                           ;	WRT2 = OFF, Block 2 (004000-005FFFh) is not write-protected
  6636                           ;	Write Protection bit
  6637                           ;	WRT3 = OFF, Block 3 (006000-007FFFh) is not write-protected
  6638  30000A                     	org	3145738
  6639  30000A  0F                 	db	15
  6640                           
  6641                           ;Config register CONFIG6H @ 0x30000B
  6642                           ;	Configuration Register Write Protection bit
  6643                           ;	WRTC = OFF, Configuration registers (300000-3000FFh) are not write-protected
  6644                           ;	Boot Block Write Protection bit
  6645                           ;	WRTB = OFF, Boot block (000000-0007FFh) is not write-protected
  6646                           ;	Data EEPROM Write Protection bit
  6647                           ;	WRTD = OFF, Data EEPROM is not write-protected
  6648  30000B                     	org	3145739
  6649  30000B  E0                 	db	224
  6650                           
  6651                           ;Config register CONFIG7L @ 0x30000C
  6652                           ;	Table Read Protection bit
  6653                           ;	EBTR0 = OFF, Block 0 (000800-001FFFh) is not protected from table reads executed in ot
      +                          her blocks
  6654                           ;	Table Read Protection bit
  6655                           ;	EBTR1 = OFF, Block 1 (002000-003FFFh) is not protected from table reads executed in ot
      +                          her blocks
  6656                           ;	Table Read Protection bit
  6657                           ;	EBTR2 = OFF, Block 2 (004000-005FFFh) is not protected from table reads executed in ot
      +                          her blocks
  6658                           ;	Table Read Protection bit
  6659                           ;	EBTR3 = OFF, Block 3 (006000-007FFFh) is not protected from table reads executed in ot
      +                          her blocks
  6660  30000C                     	org	3145740
  6661  30000C  0F                 	db	15
  6662                           
  6663                           ;Config register CONFIG7H @ 0x30000D
  6664                           ;	Boot Block Table Read Protection bit
  6665                           ;	EBTRB = OFF, Boot block (000000-0007FFh) is not protected from table reads executed in
      +                           other blocks
  6666  30000D                     	org	3145741
  6667  30000D  40                 	db	64
  6668                           tosu	equ	0xFFF
  6669                           tosh	equ	0xFFE
  6670                           tosl	equ	0xFFD
  6671                           stkptr	equ	0xFFC
  6672                           pclatu	equ	0xFFB
  6673                           pclath	equ	0xFFA
  6674                           pcl	equ	0xFF9
  6675                           tblptru	equ	0xFF8
  6676                           tblptrh	equ	0xFF7
  6677                           tblptrl	equ	0xFF6
  6678                           tablat	equ	0xFF5
  6679                           prodh	equ	0xFF4
  6680                           prodl	equ	0xFF3
  6681                           indf0	equ	0xFEF
  6682                           postinc0	equ	0xFEE
  6683                           postdec0	equ	0xFED
  6684                           preinc0	equ	0xFEC
  6685                           plusw0	equ	0xFEB
  6686                           fsr0h	equ	0xFEA
  6687                           fsr0l	equ	0xFE9
  6688                           wreg	equ	0xFE8
  6689                           indf1	equ	0xFE7
  6690                           postinc1	equ	0xFE6
  6691                           postdec1	equ	0xFE5
  6692                           preinc1	equ	0xFE4
  6693                           plusw1	equ	0xFE3
  6694                           fsr1h	equ	0xFE2
  6695                           fsr1l	equ	0xFE1
  6696                           bsr	equ	0xFE0
  6697                           indf2	equ	0xFDF
  6698                           postinc2	equ	0xFDE
  6699                           postdec2	equ	0xFDD
  6700                           preinc2	equ	0xFDC
  6701                           plusw2	equ	0xFDB
  6702                           fsr2h	equ	0xFDA
  6703                           fsr2l	equ	0xFD9
  6704                           status	equ	0xFD8

Data Sizes:
    Strings     45
    Constant    0
    Data        0
    BSS         72
    Persistent  0
    Stack       0

Auto Spaces:
    Space          Size  Autos    Used
    COMRAM           95     95      95
    BANK0           160     27      99
    BANK1           256      0       0
    BANK2           256      0       0
    BANK3           256      0       0
    BANK4           256      0       0
    BANK5           256      0       0
    BANK6           256      0       0
    BANK7           256      0       0

Pointer List with Targets:

    strlen@s	PTR const unsigned char  size(2) Largest target is 32
		 -> dbuf(BANK0[32]), 

    strlen@a	PTR const unsigned char  size(2) Largest target is 32
		 -> dbuf(BANK0[32]), 

    fputs@s	PTR const unsigned char  size(2) Largest target is 32
		 -> dbuf(BANK0[32]), 

    fputs@fp	PTR struct _IO_FILE size(2) Largest target is 11
		 -> sprintf@f(BANK0[11]), 

    fputc@fp...source	PTR const unsigned char  size(2) Largest target is 0

    fputc@fp...buffer	PTR unsigned char  size(2) Largest target is 0

    fputc@fp	PTR struct _IO_FILE size(2) Largest target is 11
		 -> sprintf@f(BANK0[11]), 

    atoi@s	PTR const unsigned char  size(2) Largest target is 18
		 -> STR_6(CODE[18]), 

    vfprintf@ap	PTR PTR void  size(2) Largest target is 2
		 -> sprintf@ap(BANK0[2]), 

    vfprintf@fp	PTR struct _IO_FILE size(2) Largest target is 11
		 -> sprintf@f(BANK0[11]), 

    vfprintf@fmt	PTR const unsigned char  size(2) Largest target is 18
		 -> STR_6(CODE[18]), 

    vfprintf@cfmt	PTR unsigned char  size(2) Largest target is 18
		 -> STR_6(CODE[18]), 

    vfpfcnvrt@fp	PTR struct _IO_FILE size(2) Largest target is 11
		 -> sprintf@f(BANK0[11]), 

    vfpfcnvrt@ap	PTR PTR void  size(2) Largest target is 2
		 -> sprintf@ap(BANK0[2]), 

    vfpfcnvrt@fmt	PTR PTR unsigned char  size(2) Largest target is 2
		 -> vfprintf@cfmt(COMRAM[2]), 

    dtoa@fp	PTR struct _IO_FILE size(2) Largest target is 11
		 -> sprintf@f(BANK0[11]), 

    pad@fp	PTR struct _IO_FILE size(2) Largest target is 11
		 -> sprintf@f(BANK0[11]), 

    pad@buf	PTR unsigned char  size(2) Largest target is 32
		 -> dbuf(BANK0[32]), 

    sprintf@fmt	PTR const unsigned char  size(2) Largest target is 18
		 -> STR_6(CODE[18]), 

    sprintf@s	PTR unsigned char  size(2) Largest target is 32
		 -> LCD_Buffer(BANK0[32]), 

    sprintf@ap	PTR void [1] size(2) Largest target is 2
		 -> ?_sprintf(BANK0[2]), 

    S931$source	PTR const unsigned char  size(2) Largest target is 0

    f...source	PTR const unsigned char  size(2) Largest target is 0

    S931$buffer	PTR unsigned char  size(2) Largest target is 0

    f...buffer	PTR unsigned char  size(2) Largest target is 0

    lcd_putc@a	PTR unsigned char  size(2) Largest target is 32
		 -> LCD_Buffer(BANK0[32]), STR_5(CODE[19]), 

    USART_SendString@out	PTR const unsigned char  size(2) Largest target is 2
		 -> STR_4(CODE[2]), STR_3(CODE[2]), STR_2(CODE[2]), STR_1(CODE[2]), 


Critical Paths under _main in COMRAM

    _lcd_init->_Lcd_Cmd
    _controlSemaforo->_llamar_ultrasonico
    _sprintf->_vfprintf
    _vfprintf->_vfpfcnvrt
    _vfpfcnvrt->_dtoa
    _dtoa->_pad
    _pad->_fputs
    _fputs->_fputc
    _abs->___aomod
    _atoi->_isspace
    _lcd_putc->_lcd_write_char
    _lcd_write_char->_Lcd_Port
    _lcd_gotoxy->_Lcd_Cmd
    _Lcd_Cmd->_Lcd_Port
    _funcion_SensorPir->_Obtener_Distancia
    _USART_SendString->_USART_TxChar
    _Obtener_Distancia->___lwdiv
    _USART_Init->___fladd
    ___fldiv->___xxtofl
    ___fladd->___fldiv

Critical Paths under _main in BANK0

    _main->_controlSemaforo
    _llamar_ultrasonico->_sprintf

Critical Paths under _main in BANK1

    None.

Critical Paths under _main in BANK2

    None.

Critical Paths under _main in BANK3

    None.

Critical Paths under _main in BANK4

    None.

Critical Paths under _main in BANK5

    None.

Critical Paths under _main in BANK6

    None.

Critical Paths under _main in BANK7

    None.

Call Graph Tables:

 ---------------------------------------------------------------------------------
 (Depth) Function   	        Calls       Base Space   Used Autos Params    Refs
 ---------------------------------------------------------------------------------
 (0) _main                                                 5     0      5   16118
                                             22 BANK0      5     0      5
            _Configuracion_Registros
                        _Timer1_Init
                         _USART_Init
                    _controlSemaforo
                           _lcd_init
 ---------------------------------------------------------------------------------
 (1) _lcd_init                                             1     1      0     198
                                              3 COMRAM     1     1      0
                            _Lcd_Cmd
                           _Lcd_Port
 ---------------------------------------------------------------------------------
 (1) _controlSemaforo                                      3     3      0   11309
                                             19 BANK0      3     3      0
                   _USART_SendString
               _delaymsled_red_green
                  _delaymsled_yellow
                  _funcion_SensorPir
                 _llamar_ultrasonico
 ---------------------------------------------------------------------------------
 (2) _llamar_ultrasonico                                   4     2      2    9829
                                             91 COMRAM     4     2      2
                  _Obtener_Distancia
                         _lcd_gotoxy
                           _lcd_putc
                            _sprintf
 ---------------------------------------------------------------------------------
 (3) _sprintf                                             21    15      6    8196
                                              0 BANK0     19    13      6
                           _vfprintf
 ---------------------------------------------------------------------------------
 (4) _vfprintf                                             8     2      6    7843
                                             83 COMRAM     8     2      6
                          _vfpfcnvrt
 ---------------------------------------------------------------------------------
 (5) _vfpfcnvrt                                           44    38      6    7470
                                             63 COMRAM    20    14      6
                               _atoi
                               _dtoa
                              _fputc
                            _isdigit
 ---------------------------------------------------------------------------------
 (6) _dtoa                                                36    26     10    4358
                                             27 COMRAM    36    26     10
                            ___aodiv
                            ___aomod
                                _abs
                                _pad
 ---------------------------------------------------------------------------------
 (7) _pad                                                 11     5      6    2709
                                             16 COMRAM    11     5      6
                              _fputc
                              _fputs
                             _strlen
 ---------------------------------------------------------------------------------
 (8) _strlen                                               4     2      2     166
                                              0 COMRAM     4     2      2
 ---------------------------------------------------------------------------------
 (8) _fputs                                                7     3      4    1235
                                              9 COMRAM     7     3      4
                              _fputc
 ---------------------------------------------------------------------------------
 (6) _fputc                                                9     5      4     834
                                              0 COMRAM     9     5      4
                              _putch
 ---------------------------------------------------------------------------------
 (7) _putch                                                1     1      0       0
 ---------------------------------------------------------------------------------
 (7) _abs                                                  4     2      2     142
                                             18 COMRAM     4     2      2
                            ___aomod (ARG)
 ---------------------------------------------------------------------------------
 (7) ___aomod                                             18     2     16     448
                                              0 COMRAM    18     2     16
 ---------------------------------------------------------------------------------
 (7) ___aodiv                                             26    10     16     452
                                              0 COMRAM    26    10     16
 ---------------------------------------------------------------------------------
 (6) _atoi                                                10     8      2    1172
                                              7 COMRAM    10     8      2
                             ___wmul
                            _isdigit
                            _isspace
 ---------------------------------------------------------------------------------
 (7) _isspace                                              7     5      2     207
                                              0 COMRAM     7     5      2
 ---------------------------------------------------------------------------------
 (6) _isdigit                                              6     4      2     237
                                              0 COMRAM     6     4      2
 ---------------------------------------------------------------------------------
 (7) ___wmul                                               6     2      4     403
                                              0 COMRAM     6     2      4
 ---------------------------------------------------------------------------------
 (3) _lcd_putc                                             6     4      2     420
                                              4 COMRAM     6     4      2
                     _lcd_write_char
 ---------------------------------------------------------------------------------
 (4) _lcd_write_char                                       3     3      0     178
                                              1 COMRAM     3     3      0
                           _Lcd_Port
 ---------------------------------------------------------------------------------
 (3) _lcd_gotoxy                                           5     4      1     532
                                              3 COMRAM     5     4      1
                            _Lcd_Cmd
 ---------------------------------------------------------------------------------
 (2) _Lcd_Cmd                                              2     2      0     110
                                              1 COMRAM     2     2      0
                           _Lcd_Port
 ---------------------------------------------------------------------------------
 (2) _Lcd_Port                                             1     1      0      88
                                              0 COMRAM     1     1      0
 ---------------------------------------------------------------------------------
 (2) _funcion_SensorPir                                    4     2      2    1043
                                             17 COMRAM     4     2      2
                  _Obtener_Distancia
                   _USART_SendString
               _delaymsled_red_green
 ---------------------------------------------------------------------------------
 (3) _delaymsled_red_green                                 2     2      0       0
                                              0 COMRAM     2     2      0
 ---------------------------------------------------------------------------------
 (3) _USART_SendString                                     2     0      2     371
                                              1 COMRAM     2     0      2
                       _USART_TxChar
 ---------------------------------------------------------------------------------
 (4) _USART_TxChar                                         1     1      0      22
                                              0 COMRAM     1     1      0
 ---------------------------------------------------------------------------------
 (3) _Obtener_Distancia                                   10     8      2     430
                                              7 COMRAM    10     8      2
                            ___lwdiv
 ---------------------------------------------------------------------------------
 (4) ___lwdiv                                              7     3      4     314
                                              0 COMRAM     7     3      4
 ---------------------------------------------------------------------------------
 (2) _delaymsled_yellow                                    2     2      0       0
                                              0 COMRAM     2     2      0
 ---------------------------------------------------------------------------------
 (1) _USART_Init                                           8     4      4    4611
                                             55 COMRAM     8     4      4
                            ___fladd
                            ___fldiv
                            ___fltol
                           ___xxtofl
 ---------------------------------------------------------------------------------
 (2) ___xxtofl                                            14    10      4     398
                                              0 COMRAM    14    10      4
 ---------------------------------------------------------------------------------
 (2) ___fltol                                             10     6      4     305
                                              0 COMRAM    10     6      4
 ---------------------------------------------------------------------------------
 (2) ___fldiv                                             25    17      8    1399
                                             14 COMRAM    25    17      8
                           ___xxtofl (ARG)
 ---------------------------------------------------------------------------------
 (2) ___fladd                                             16     8      8    2388
                                             39 COMRAM    16     8      8
                            ___fldiv (ARG)
                           ___xxtofl (ARG)
 ---------------------------------------------------------------------------------
 (1) _Timer1_Init                                          0     0      0       0
 ---------------------------------------------------------------------------------
 (1) _Configuracion_Registros                              0     0      0       0
 ---------------------------------------------------------------------------------
 Estimated maximum stack depth 8
 ---------------------------------------------------------------------------------

 Call Graph Graphs:

 _main (ROOT)
   _Configuracion_Registros
   _Timer1_Init
   _USART_Init
     ___fladd
       ___fldiv (ARG)
         ___xxtofl (ARG)
       ___xxtofl (ARG)
     ___fldiv
     ___fltol
     ___xxtofl
   _controlSemaforo
     _USART_SendString
       _USART_TxChar
     _delaymsled_red_green
     _delaymsled_yellow
     _funcion_SensorPir
       _Obtener_Distancia
         ___lwdiv
       _USART_SendString
       _delaymsled_red_green
     _llamar_ultrasonico
       _Obtener_Distancia
       _lcd_gotoxy
         _Lcd_Cmd
           _Lcd_Port
       _lcd_putc
         _lcd_write_char
           _Lcd_Port
       _sprintf
         _vfprintf
           _vfpfcnvrt
             _atoi
               ___wmul
               _isdigit
               _isspace
             _dtoa
               ___aodiv
               ___aomod
               _abs
                 ___aomod (ARG)
               _pad
                 _fputc
                   _putch
                 _fputs
                   _fputc
                 _strlen
             _fputc
             _isdigit
   _lcd_init
     _Lcd_Cmd
     _Lcd_Port

 Address spaces:
Name               Size   Autos  Total    Cost      Usage
BIGRAM             7FF      0       0      32        0.0%
EEDATA             100      0       0       0        0.0%
BITBANK7           100      0       0      18        0.0%
BANK7              100      0       0      19        0.0%
BITBANK6           100      0       0      16        0.0%
BANK6              100      0       0      17        0.0%
BITBANK5           100      0       0      14        0.0%
BANK5              100      0       0      15        0.0%
BITBANK4           100      0       0      12        0.0%
BANK4              100      0       0      13        0.0%
BITBANK3           100      0       0      10        0.0%
BANK3              100      0       0      11        0.0%
BITBANK2           100      0       0       8        0.0%
BANK2              100      0       0       9        0.0%
BITBANK1           100      0       0       6        0.0%
BANK1              100      0       0       7        0.0%
BITBANK0            A0      0       0       4        0.0%
BANK0               A0     1B      63       5       61.9%
BITCOMRAM           5F      0       0       0        0.0%
COMRAM              5F     5F      5F       1      100.0%
BITBIGSFRhhh        2C      0       0      20        0.0%
BITBIGSFRll         20      0       0      30        0.0%
BITBIGSFRhhll       11      0       0      23        0.0%
BITBIGSFRhllh        C      0       0      24        0.0%
BITBIGSFRhhlhl       B      0       0      22        0.0%
BITBIGSFRhlll        8      0       0      25        0.0%
BITBIGSFRlhlhl       5      0       0      28        0.0%
BITBIGSFRlhh         5      0       0      26        0.0%
BITBIGSFRhhlhh       3      0       0      21        0.0%
BITBIGSFRlhlhh       2      0       0      27        0.0%
BITBIGSFRlhll        1      0       0      29        0.0%
BIGSFR               0      0       0     200        0.0%
BITSFR               0      0       0     200        0.0%
SFR                  0      0       0     200        0.0%
STACK                0      0       0       2        0.0%
NULL                 0      0       0       0        0.0%
ABS                  0      0      C2      31        0.0%
DATA                 0      0      C2       3        0.0%
CODE                 0      0       0       0        0.0%


Microchip Technology PIC18 Macro Assembler V2.36 build 20220127204148 
Symbol Table                                                                                   Wed Mar 09 12:24:44 2022

                   ___fldiv@aexp 0027                     ___fldiv@bexp 0026  
                   ___fldiv@sign 001F                               l30 27E8  
                             l33 27FA                               l27 2152  
      __end_of_Obtener_Distancia 21E6                               l46 273C  
            ___wmul@multiplicand 0003       funcion_SensorPir@Distancia 0014  
          ?_delaymsled_red_green 0001                              l121 249A  
                            l202 2160                              l123 24B0  
                            l212 21E4                              l204 216E  
                            l132 27B6                              l205 2170  
                            l125 24C6                              l141 2420  
                            l207 217E                              l127 24DC  
                            l215 2796                              l144 22D6  
                            l209 21D4                              l129 24DE  
                            l153 2262                              l147 26D0  
                            l190 27CE                              l342 1B66  
                            l175 200E                              l512 1DC2  
                            l184 20BE                              l329 1A02  
                            l193 23BA                              l178 208A  
                            l187 2538                              l196 2818  
                            l199 280E                              l713 234A  
                            l810 0FA6                              l802 0EAC  
                            l706 2342                              l811 0F94  
                            l743 0A1E                              l760 0B38  
                            l752 0CEE                              l744 0A0C  
                            l808 0F2E                              l745 09D2  
                            l770 0BF6                              l924 1ED4  
                            l870 171E                              l927 1F16  
                            l935 1486                              l769 0C08  
                            l873 187A                              l929 1F52  
                            l937 148E                              l955 16C6  
                            l884 1812                              l797 1088  
                            l877 17B6                              l893 258A  
                            l982 13E4                              l799 0EE8  
                            l993 2658                              l969 1186  
                            l996 2660                              l988 247A  
                            l989 2482                              _RB2 007C0A  
                            _RB3 007C0B                              _RB4 007C0C  
                            _RB5 007C0D                              _RB6 007C0E  
                            _RB7 007C0F                              _abs 2622  
                            _pad 1E8E                              wreg 000FE8  
                    lcd_gotoxy@a 0005                      lcd_gotoxy@b 0004  
                    lcd_gotoxy@y 0007                      lcd_gotoxy@z 0006  
                   ___fltol@exp1 000A                             l1021 1CBC  
                           l1024 2698                             l1032 25DC  
                           l1018 1CB4                             ?_abs 0013  
                           l1047 1E8C                             l1055 2620  
                           l2200 1DC4                             l1064 2706  
                           l3010 0E70                             l3002 0E26  
                           l1058 281A                             l2210 1E46  
                           l2202 1DD6                             l3020 0EB6  
                           l3012 0E78                             l3004 0E40  
                           l2300 1AA2                             l2204 1DE8  
                           l2220 2600                             l2070 2810  
                           l3030 0F0E                             l3022 0ED4  
                           l3014 0E88                             l3006 0E50  
                           l2302 1AB0                             l2310 1B16  
                           l2206 1DF2                             l2214 25DE  
                           l2222 26D2                             l2072 2814  
                           l2080 2802                             l3040 0F4C  
                           l3032 0F14                             l3024 0ED6  
                           l3016 0E9C                             l3008 0E60  
                           l3120 1DA2                             l3104 1D4E  
                           l2232 2772                             l2240 1880  
                           l2312 1B26                             l2304 1ADE  
                           l2208 1E10                             l2216 25EA  
                           l2224 26DE                             l2320 1E9E  
                           l2400 1616                             l3200 22C4  
                           l2074 2816                             l2082 280C  
                           l3050 0FB6                             l3042 0F50  
                           l3034 0F1E                             l3026 0EE6  
                           l3018 0EAA                             l3122 1DB2  
                           l3114 1D76                             l3106 1D58  
                           l3130 16E8                             l2234 278E  
                           l2250 18E0                             l2242 188E  
                           l2314 1B46                             l2306 1AFE  
                           l2218 25FC                             l2226 26E2  
                           l2330 1EF4                             l2322 1EB2  
                           l2410 1668                             l2402 1630  
                           l3210 1F5A                             l3202 22CA  
                           l2076 27FC                             l3060 1018  
                           l3052 0FC2                             l3044 0F5E  
                           l3036 0F2C                             l3028 0EF8  
                           l3116 1D82                             l3108 1D62  
                           l3140 1760                             l3132 172E  
                           l2260 192A                             l2252 18E4  
                           l2244 18AE                             l2308 1B10  
                           l2340 2622                             l2228 26FA  
                           l2332 1EF8                             l2324 1EC0  
                           l2412 167A                             l2404 1640  
                           l2500 1114                             l3220 1F92  
                           l3212 1F66                             l3204 22D0  
                           l2078 27FE                             l3070 1076  
                           l3062 102E                             l3054 0FD0  
                           l3046 0F8C                             l3038 0F3E  
                           l3118 1D92                             l3150 17E8  
                           l3142 176C                             l3134 1744  
                           l3126 16CA                             l2350 2590  
                           l2430 1B9C                             l2422 1B68  
                           l2270 199A                             l2262 1938  
                           l2254 18F0                             l2246 18B2  
                           l2238 187C                             l2342 263C  
                           l2334 1F26                             l2326 1ECC  
                           l2318 1E8E                             l2414 1686  
                           l2406 1652                             l2510 1198  
                           l3230 1FB4                             l3222 1F96  
                           l3214 1F76                             l3206 1F54  
                           l3072 107C                             l3064 1048  
                           l3056 0FFA                             l3160 1826  
                           l3152 17F4                             l3144 179E  
                           l3128 16DA                             l2600 22D8  
                           l2344 2662                             l2352 25A4  
                           l2432 1BD6                             l2424 1B7C  
                           l2272 19AC                             l2264 194A  
                           l2256 190E                             l2248 18C0  
                           l2336 1F3A                             l2328 1EE0  
                           l2416 168E                             l2408 1662  
                           l2360 13E6                             l2520 122E  
                           l2512 11BC                             l2504 1120  
                           l3240 1FDE                             l3232 1FB6  
                           l3224 1F98                             l3216 1F84  
                           l3208 1F58                             l3074 107E  
                           l3066 1064                             l3058 0FFE  
                           l3090 1D12                             l3082 1CBE  
                           l3162 184A                             l3154 1802  
                           l3146 17A0                             l3138 1758  
                           l2610 2310                             l2602 22E0  
                           l2354 25D2                             l2434 1BDE  
                           l2266 1978                             l2258 1916  
                           l2274 19B2                             l2290 1A3A  
                           l2282 1A04                             l2418 169E  
                           l2370 1460                             l2362 1406  
                           l2530 12C2                             l2514 11F2  
                           l2506 1174                             l3250 1FFC  
                           l3242 1FE0                             l3234 1FC2  
                           l3226 1FA6                             l3218 1F86  
                           l3068 1068                             l3092 1D14  
                           l3084 1CD4                             l3164 185A  
                           l3156 1820                             l3148 17AC  
                           l3172 20C0                             l2620 233C  
                           l2612 2316                             l2604 22F2  
                           l2460 24AA                             l2356 25D6  
                           l2348 258C                             l2444 1C50  
                           l2436 1BE6                             l2428 1B80  
                           l2276 19C2                             l2268 1998  
                           l2292 1A48                             l2284 1A08  
                           l2380 14BC                             l2372 147A  
                           l2364 142E                             l2540 1374  
                           l2532 130A                             l2524 123C  
                           l2516 1200                             l2508 1196  
                           l3324 1146                             l2700 236E  
                           l3252 2008                             l3244 1FEC  
                           l3236 1FC4                             l3228 1FA8  
                           l3180 2264                             l3094 1D24  
                           l3166 1868                             l3158 1822  
                           l3174 20C4                             l2614 232C  
                           l2606 22FA                             l2630 2708  
                           l2710 2022                             l2462 24B2  
                           l2454 2486                             l2446 1C86  
                           l2438 1C1A                             l3326 1C04  
                           l2278 19E2                             l2294 1A68  
                           l2286 1A16                             l2390 155A  
                           l2382 14C4                             l2374 1496  
                           l2366 144E                             l2542 1388  
                           l2526 127A                             l2518 120E  
                           l2470 108A                             l2622 2422  
                           l2702 238C                             l3254 200C  
                           l3246 1FF8                             l3238 1FD0  
                           l3190 22A6                             l3182 2268  
                           l3270 2762                             l3262 273E  
                           l2800 0948                             l3096 1D28  
                           l3088 1CE8                             l3168 186A  
                           l3176 214A                             l2616 2334  
                           l2608 2302                             l2632 270C  
                           l2720 206A                             l2712 2030  
                           l2464 24C0                             l2456 2494  
                           l2640 23CE                             l2448 1C98  
                           l2296 1A86                             l2288 1A36  
                           l2392 1560                             l2384 14CC  
                           l2376 14A8                             l2368 145E  
                           l2536 1342                             l2528 129E  
                           l2480 10DE                             l2472 10AE  
                           l2552 13AE                             l2624 242A  
                           l2704 2396                             l3248 1FFA  
                           l3192 22AC                             l3184 226E  
                           l3272 2766                             l3264 2746  
                           l2810 095C                             l2802 094C  
                           l3098 1D36                             l3178 214E  
                           l2618 2336                             l2634 271C  
                           l2730 208C                             l2722 2076  
                           l2714 2032                             l2466 24C8  
                           l2458 249C                             l2570 279A  
                           l2650 2414                             l2642 23E0  
                           l2298 1A8E                             l2386 14D2  
                           l2394 15C4                             l2378 14B6  
                           l2554 13D2                             l2538 1366  
                           l2546 1394                             l2482 10E2  
                           l2474 10BC                             l2626 2438  
                           l2706 23A2                             l3194 22B2  
                           l3186 2282                             l3266 275A  
                           l2900 0BB8                             l2812 0960  
                           l2804 0950                             l2820 0970  
                           l2740 27B8                             l2636 2720  
                           l2732 209E                             l2724 207A  
                           l2716 203E                             l2708 2010  
                           l2468 24D6                             l2572 279C  
                           l2652 241A                             l2644 23E6  
                           l2580 269C                             l2660 2226  
                           l2396 15DE                             l2388 1554  
                           l2548 13A2                             l2492 1104  
                           l2484 10F4                             l2476 10CE  
                           l2628 245E                             l3196 22B8  
                           l3188 2290                             l3268 275E  
                           l2902 0BC6                             l2830 09E0  
                           l2822 0974                             l2814 0964  
                           l2806 0954                             l2750 085C  
                           l2742 0830                             l2670 2188  
                           l2566 27E8                             l2662 24E0  
                           l2734 20A4                             l2726 207C  
                           l2718 2054                             l2574 27A2  
                           l2646 23F0                             l2638 23BE  
                           l2590 26BC                             l2582 26A8  
                           l2654 21E6                             l2398 15FC  
                           l2478 10D2                             l3198 22BE  
                           l2912 0C18                             l2920 0C6E  
                           l2904 0BCA                             l2840 0A0A  
                           l2832 09EC                             l2824 099E  
                           l2816 0968                             l2808 0958  
                           l2760 0896                             l2752 086C  
                           l2744 083C                             l2680 21DC  
                           l2672 21AC                             l2664 2154  
                           l2568 27F6                             l2736 20B8  
                           l2728 207E                             l2576 27A4  
                           l2648 2402                             l2592 26BE  
                           l2584 26AA                             l2656 21F2  
                           l2496 110C                             l2488 10FC  
                           l2930 0CC0                             l2922 0C7E  
                           l2914 0C24                             l2906 0BD8  
                           l2850 0A60                             l2842 0A2C  
                           l2834 09F0                             l2826 09BA  
                           l2818 096C                             l2770 08C4  
                           l2762 089C                             l2754 087C  
                           l2746 084A                             l2674 21CC  
                           l2666 2156                             l2738 20BA  
                           l2578 27B4                             l2594 26C4  
                           l2586 26B2                             l2658 2222  
                           l2690 255C                             l2940 0CDE  
                           l2932 0CC6                             l2924 0C8E  
                           l2916 0C32                             l2908 0BEE  
                           l2860 0A9A                             l2852 0A6E  
                           l2844 0A3C                             l2836 09FE  
                           l2828 09CA                             l2780 08F8  
                           l2772 08C6                             l2764 08AE  
                           l2756 087E                             l2748 084C  
                           l2676 21CC                             l2668 215E  
                           l2596 26C6                             l2588 26B4  
                           l2692 2578                             l2684 253A  
                           l2934 0CC8                             l2926 0CAE  
                           l2918 0C6C                             l2870 0B06  
                           l2862 0A9C                             l2854 0A7C  
                           l2838 0A00                             l2790 0934  
                           l2774 08D6                             l2782 0900  
                           l2766 08B0                             l2758 0886  
                           l2950 0D0C                             l2598 26CE  
                           l2686 254C                             ?_pad 0011  
                           l2936 0CCE                             l2928 0CB2  
                           l2880 0B5E                             l2872 0B08  
                           l2864 0AA6                             l2856 0A88  
                           l2848 0A50                             l2792 0938  
                           l2784 0910                             l2776 08E6  
                           l2768 08B6                             l2952 0D1C  
                           l2960 0D46                             l2944 0CF0  
                           l2688 2554                             l2696 234C  
                           l2938 0CDC                             l2890 0B8C  
                           l2874 0B18                             l2858 0A8C  
                           l2866 0AAC                             l2794 093C  
                           l2786 0922                             l2778 08F6  
                           l2970 0D72                             l2962 0D56  
                           l2954 0D2C                             l2946 0CFC  
                           l2698 2362                             l2892 0B9A  
                           l2884 0B72                             l2868 0AD2  
                           l2876 0B28                             l2796 0940  
                           l2788 0930                             l2972 0D82  
                           l2980 0DAC                             l2964 0D5C  
                           l2956 0D3C                             l2948 0D0A  
                           l2894 0BA2                             l2886 0B7C  
                           l2878 0B4E                             l2798 0944  
                           l2990 0DEE                             l2982 0DBC  
                           l2974 0D92                             l2966 0D62  
                           l2958 0D3E                             l2896 0BA6  
                           l2888 0B8A                             l2984 0DD2  
                           l2976 0DA2                             l2968 0D70  
                           l2898 0BB6                             l2986 0DE2  
                           l2994 0E02                             l2978 0DA4  
                           l2996 0E12                             l2988 0DEA  
                           l2998 0E12                             STR_1 0826  
                           STR_2 0828                             STR_3 082A  
                           STR_4 082C                             STR_5 0801  
                           STR_6 0814                             _CREN 007D5C  
                           u2000 15DE                             u2001 15DA  
                           u2010 15FC                             u2011 15F8  
                           u2100 1C86                             u2020 1616  
                           u2101 1C82                             u2021 1612  
                           u2110 1C98                             u2030 1630  
                           u2111 1C94                             u2031 162C  
                           u3000 0F8C                             u2120 2494  
                           u2040 1640                             u2200 1200  
                           u3001 0F88                             u2121 2490  
                           u2041 163C                             u2201 11FC  
                           u3010 0FA2                             u2130 24AA  
                           u2050 1652                             u2210 127A  
                           u3011 0F9E                             u2131 24A6  
                           u2051 164E                             u2211 1276  
                           u3020 0FB6                             u3100 1D4A  
                           u2300 273C                             u2140 24C0  
                           u2060 1662                             u2220 129E  
                           u3021 0FB2                             u3101 1D46  
                           u2301 2738                             u2141 24BC  
                           u2061 165E                             u2221 129A  
                           u3030 0FD0                             u3110 1D72  
                           u2150 24D6                             u2310 23CE  
                           u2070 167A                             u2230 12C2  
                           u3031 0FCC                             u3111 1D6E  
                           u2151 24D2                             u2311 23CA  
                           u2071 1676                             u2231 12BE  
                           u3040 1018                             u3120 1D92  
                           u3200 1812                             u2400 2030  
                           u2320 2402                             u2080 1B9C  
                           u2240 1366                             u2160 10AE  
                           u3041 1014                             u3121 1D8E  
                           u3201 180E                             u2401 202C  
                           u2321 23FE                             u2081 1B98  
                           u2241 1362                             u2161 10AA  
                           u3050 1048                             u3130 1DA2  
                           u3210 1820                             u2250 27F6  
                           u2410 2054                             u2330 221E  
                           u2090 1BD2                             u2170 1186  
                           u3051 1044                             u3131 1D9E  
                           u3211 181C                             u2251 27F2  
                           u2411 2050                             u2091 1BCE  
                           u2171 1182                             u2500 08D6  
                           u3060 1076                             u3220 185A  
                           u3140 16DA                             u2260 22F2  
                           u2420 206A                             u2340 2252  
                           u1700 26FA                             u2180 1196  
                           u2501 08D2                             u3061 1072  
                           u3221 1856                             u3141 16D6  
                           u2261 22EE                             u2421 2066  
                           u1701 26F6                             u2181 1192  
                           u2510 08E6                             u3070 1CD4  
                           u3230 1868                             u3150 16E8  
                           u2270 2310                             u2430 209E  
                           u2350 2262                             u1710 188E  
                           u2190 11BC                             u2511 08E2  
                           u3071 1CD0                             u3231 1864  
                           u3151 16E4                             u2271 230C  
                           u2431 209A                             u2351 225E  
                           u1711 188A                             u2191 11B8  
                           u2600 0A2C                             u2520 0922  
                           u3080 1D08                             u3160 1744  
                           u2280 232C                             u2360 216E  
                           u2440 20B8                             u1720 18C0  
                           u1800 1A86                             u3240 1F84  
                           u2601 0A28                             u2521 091E  
                           u3161 1740                             u2281 2328  
                           u2361 216A                             u2441 20B4  
                           u2337 2214                             u1721 18BC  
                           u1801 1A82                             u3241 1F80  
                           u2610 0A3C                             u2530 0930  
                           u2450 084A                             u3090 1D36  
                           u3170 179A                             u2370 217E  
                           u1810 1AB0                             u1650 1DD6  
                           u2290 247A                             u3250 1FA6  
                           u2611 0A38                             u2531 092C  
                           u2451 0846                             u3091 1D32  
                           u3171 1796                             u2371 217A  
                           u2347 2248                             u1731 18EA  
                           u1811 1AAC                             u1651 1DD2  
                           u2291 2476                             u3251 1FA2  
                           u3307 1F6E                             u2700 0B9A  
                           u2620 0A6E                             u2540 099E  
                           u2460 085C                             u3180 17E4  
                           u2380 21AC                             u1900 2694  
                           u1740 190E                             u1820 1ADE  
                           u1660 1DE8                             u3260 1FDE  
                           u2701 0B96                             u2621 0A6A  
                           u2541 099A                             u2461 0858  
                           u3085 1CFE                             u3181 17E0  
                           u2381 21A8                             u1741 190A  
                           u1821 1ADA                             u1661 1DE4  
                           u3317 23AC                             u3261 1FDA  
                           u2710 0BB6                             u2630 0A7C  
                           u2550 09B6                             u2470 086C  
                           u3190 1802                             u2390 2022  
                           u1910 25A4                             u1750 1938  
                           u1830 1B26                             u1670 1E10  
                           u2711 0BB2                             u2631 0A78  
                           u2551 09B0                             u2471 0868  
                           u3191 17FE                             u3407 27C2  
                           u2391 201E                             u3327 26B6  
                           u1911 25A0                             u1751 1934  
                           u1831 1B22                             u1671 1E0C  
                           u2800 0C8E                             u2720 0BC6  
                           u2640 0A9A                             u2560 09B8  
                           u2480 08AE                             u1920 25D2  
                           u1760 1978                             u1680 1E46  
                           u1840 1E9E                             u2801 0C8A  
                           u2721 0BC2                             u2641 0A96  
                           u2481 08AA                             u3337 26C8  
                           u1921 25CE                             u1761 1974  
                           u1681 1E42                             u1841 1E9A  
                           u2810 0CAE                             u2730 0BD8  
                           u2650 0AD2                             u2570 09E0  
                           u2490 08C4                             u1770 19C2  
                           u1690 2620                             u1850 1EC0  
                           u1930 1416                             u2811 0CAA  
                           u2731 0BD4                             u2651 0ACE  
                           u2571 09DC                             u2491 08C0  
                           u3347 27AA                             u1771 19BE  
                           u1691 261C                             u1851 1EBC  
                           u1931 1410                             u2820 0CC0  
                           u2740 0BEE                             u2660 0B18  
                           u2580 09FE                             u2900 0DD2  
                           u1780 1A16                             u1860 1F16  
                           u1940 1418                             u2821 0CBC  
                           u2741 0BEA                             u2661 0B14  
                           u2581 09FA                             u2901 0DCE  
                           u3357 24EA                             u1781 1A12  
                           u1861 1F12                             u3277 2274  
                           u2830 0CDC                             u2750 0C04  
                           u2670 0B4E                             u2590 0A1E  
                           u2910 0E12                             u1790 1A48  
                           u1870 1F26                             u1950 142E  
                           u2831 0CD8                             u2751 0C00  
                           u2671 0B4A                             u2591 0A1A  
                           u2911 0E0E                             u3367 2500  
                           u1791 1A44                             u1871 1F22  
                           u1951 142A                             u3287 2288  
                           u2760 0C18                             u2680 0B5E  
                           u2920 0E88                             u2840 0D0A  
                           u1880 263C                             u1960 145E  
                           u2761 0C14                             u2681 0B5A  
                           u2921 0E84                             u2841 0D06  
                           u3377 2516                             u1881 2638  
                           u1961 145A                             u3297 229C  
                           u2770 0C32                             u2690 0B8A  
                           u2930 0EAA                             u2850 0D1C  
                           u1890 2692                             u1970 147A  
                           u2771 0C2E                             u2691 0B86  
                           u2931 0EA6                             u2851 0D18  
                           u3387 252C                             u1891 268C  
                           u1971 1476                             u2780 0C6C  
                           u2940 0ED4                             u2860 0D2C  
                           u1980 14A8                             u2781 0C68  
                           u2941 0ED0                             u2861 0D28  
                           u3397 2158                             u1981 14A4  
                           u2790 0C7E                             u2950 0EF8  
                           u2870 0D70                             u1990 14B6  
                           u2791 0C7A                             u2951 0EF4  
                           u2871 0D6C                             u1991 14B2  
                           u2960 0F0E                             u2880 0D82  
                           u2961 0F0A                             u2881 0D7E  
                           u2970 0F2C                             u2890 0D92  
                           u2971 0F28                             u2891 0D8E  
                           u2980 0F4C                             _RCIF 007CF5  
                           u2981 0F48                             u2990 0F5E  
                           u2991 0F5A                             _TMR1 000FCE  
                           _TXIF 007CF4                  lcd_write_char@a 0004  
                lcd_write_char@y 0003           __end_of_lcd_write_char 26D2  
     Obtener_Distancia@Distancia 000E                             abs@a 0013  
                           _dbuf 0068                             _atoi 1B68  
                           _main 273E                             _dtoa 13E6  
                           _prec 0064                             _nout 0060  
                           pad@i 0018                             pad@p 0015  
                           fsr1h 000FE2                             fsr2h 000FDA  
                           indf1 000FE7                             indf2 000FDF  
                           fsr1l 000FE1                             pad@w 001A  
                           fsr2l 000FD9         __end_of_USART_SendString 273E  
                           prodh 000FF4                             prodl 000FF3  
                           start 0000                  ___fldiv@new_exp 0020  
                __end_of_Lcd_Cmd 27B8                     ___param_bank 000000  
                          ??_abs 0015                            ??_pad 0017  
                  ___fltol@sign1 0009                  __end_of___aodiv 1A04  
                          ?_atoi 0008                  __end_of___fladd 0CF0  
                          ?_main 00BE                            ?_dtoa 001C  
                __end_of___aomod 1B68                  __end_of___fldiv 108A  
                __end_of___fltol 1DC4                            _LATD0 007C60  
                          _LATD1 007C61                            _LATD2 007C62  
                          _LATD3 007C63                            _LATD4 007C64  
                __end_of___lwdiv 234C                            _RCREG 000FAE  
                          _RCSTA 000FAB                     vfpfcnvrt@fmt 0042  
                          _SPBRG 000FAF                            _TRISA 000F92  
                          _TRISB 000F93                            _TRISD 000F95  
                          _TXREG 000FAD                            _TXSTA 000FAC  
                          _flags 0066                            _fputc 1DC4  
                          _fputs 25DE                  __end_of_isdigit 269A  
                          atoi@n 0010                            pad@fp 0011  
                          atoi@s 0008                            _width 0062  
                          _putch 281A                            dtoa@d 001E  
                          dtoa@i 003E                            dtoa@n 0036  
                          dtoa@p 0030                            dtoa@s 0034  
                          dtoa@w 0032                  __end_of_isspace 25DE  
                          tablat 000FF5                  ?_lcd_write_char 0001  
                          status 000FD8                  __end_of_sprintf 258C  
                    ?_USART_Init 0038                 __end_of_Lcd_Port 24E0  
                __initialization 27D0                     __end_of_atoi 1CBE  
                   __end_of_main 2772                     __end_of_dtoa 16C8  
         ??_delaymsled_red_green 0001                           ??_atoi 000A  
                         ??_main 0060                           ??_dtoa 0026  
                  __activetblptr 000002                ??_controlSemaforo 00BB  
                         _ADCON1 000FC1                           ?_fputc 0001  
                         ?_fputs 000A                           ?_putch 0001  
                         _OSCCON 000FD3                        ??_Lcd_Cmd 0002  
                  vfpfcnvrt@done 0052                           _TMR1ON 007E68  
                         _TRISA2 007C92                           _TRISC6 007CA6  
                         _TRISC7 007CA7                 __end_of___xxtofl 187C  
                  ??_Timer1_Init 0001                     vfprintf@cfmt 005A  
               __end_of_lcd_init 22D8                 __end_of_lcd_putc 2264  
                      ??___aodiv 0011                        ??___fladd 0030  
                      ??___aomod 0011                           ___wmul 2772  
                      ??___fldiv 0017                        ??___fltol 0005  
                      ??___lwdiv 0005                           clear_0 27D6  
                         isa$std 000001                           pad@buf 0013  
                         dtoa@fp 001C                           _strlen 26D2  
                         fputc@c 0001                           fputs@c 000E  
                         fputs@i 000F                           fputs@s 000A  
                      ??_isdigit 0003                     __mediumconst 0000  
                      ??_isspace 0003                           tblptrh 000FF7  
                         tblptrl 000FF6                           tblptru 000FF8  
                         putch@c 0001                 __end_of_vfprintf 2484  
                      ??_sprintf 005C                     ___xxtofl@arg 000B  
                   ___xxtofl@exp 000A                     ___xxtofl@val 0001  
       ?_Configuracion_Registros 0001                       __accesstop 0060  
        __end_of__initialization 27DC                _funcion_SensorPir 2010  
                  ___rparam_used 000001               ?_funcion_SensorPir 0012  
                     ___fltol@f1 0001                   __pcstackCOMRAM 0001  
            ??_funcion_SensorPir 0014                    __end_of_fputc 1E8E  
                  __end_of_fputs 2622                    __end_of_putch 281C  
            __end_of_Timer1_Init 2810                   lcd_gotoxy@temp 0008  
                      ?_Lcd_Port 0001                          ??_fputc 0005  
                        ??_fputs 000E        __end_of_funcion_SensorPir 20C0  
                        ??_putch 0001                       __pbssBANK0 0060  
              ?_USART_SendString 0002               ??_USART_SendString 0004  
       funcion_SensorPir@bandera 0012                          ?___wmul 0001  
                        ?_strlen 0001                        ?___xxtofl 0001  
                     _lcd_gotoxy 23BC  __end_of_Configuracion_Registros 281A  
               ??_lcd_write_char 0002                       ??_Lcd_Port 0001  
                      ?_lcd_init 0001                        ?_lcd_putc 0005  
     __end_of_llamar_ultrasonico 23BC               lcd_write_char@temp 0002  
                        _Lcd_Cmd 2798                     ??_USART_Init 003C  
                        __Hparam 0000                      _Timer1_Init 27FC  
                        __Lparam 0000                  _controlSemaforo 1F54  
                        ___aodiv 187C                          ___fladd 0830  
                        ___aomod 1A04                          ___fldiv 0CF0  
                        ___fltol 1CBE                          ___lwdiv 22D8  
                      ?_vfprintf 0054                     __psmallconst 0800  
                        __pcinit 27D0                          __ramtop 0800  
                        __ptext0 273E                          __ptext1 2264  
                        __ptext2 1F54                          __ptext3 234C  
                        __ptext4 253A                          __ptext5 2422  
                        __ptext6 108A                          __ptext7 13E6  
                        __ptext8 1E8E                          __ptext9 26D2  
            USART_SendString@out 0002                        _T1CONbits 000FCD  
                 USART_Init@temp 003C                          _isdigit 2662  
                     ??___xxtofl 0005                          _isspace 258C  
                        atoi@neg 000E               __end_of_USART_Init 2154  
                        _sprintf 253A                       ??_lcd_init 0004  
                     ??_lcd_putc 0007             end_of_initialization 27DC  
                        fputc@fp 0003                    __Lmediumconst 0000  
                        fputs@fp 000C                __end_of_vfpfcnvrt 13E6  
                      _RCSTAbits 000FAB                          postdec2 000FDD  
                        postinc0 000FEE                          postinc1 000FE6  
                        postinc2 000FDE                        Lcd_Port@a 0001  
                     ??_vfprintf 005A                          strlen@a 0003  
                        strlen@s 0001                        _PORTAbits 000F80  
                      _PORTDbits 000F83                      ___fladd@grs 0037  
                  ___xxtofl@sign 0009                      ?_lcd_gotoxy 0004  
                    ___fldiv@grs 0022                      ___fldiv@rem 001B  
            USART_Init@baud_rate 0038          __end_of_controlSemaforo 2010  
                  ?_USART_TxChar 0001        Obtener_Distancia@Duracion 0010  
                    vfpfcnvrt@ap 0044                      vfpfcnvrt@fp 0040  
                    vfpfcnvrt@ll 004A                   __end_of___wmul 2798  
                 __end_of_strlen 2708              start_initialization 27D0  
                    __end_of_abs 2662                      __end_of_pad 1F54  
                 ??_USART_TxChar 0001                      vfprintf@fmt 0056  
                       ??___wmul 0005                         ??_strlen 0003  
       controlSemaforo@Distancia 00BC                        ___fladd@a 002C  
                      ___fladd@b 0028                        ___fldiv@a 0013  
                      ___fldiv@b 000F                    __pcstackBANK0 00A8  
               ___aodiv@dividend 0001                         ?_Lcd_Cmd 0001  
               ?_controlSemaforo 0001                     ?_Timer1_Init 0001  
               ___lwdiv@dividend 0001                        _dtoa$1023 002E  
                       ?___aodiv 0001                         ?___fladd 0028  
             _llamar_ultrasonico 234C                         ?___aomod 0001  
                       ?___fldiv 000F                 ___aodiv@quotient 0013  
                       ?___fltol 0001                         ?___lwdiv 0001  
            ?_llamar_ultrasonico 005C                      __smallconst 0800  
                       ?_isdigit 0001                         ?_isspace 0001  
               ___lwdiv@quotient 0005                         ?_sprintf 00A8  
                 ___wmul@product 0005                         _LATAbits 000F89  
           ??_llamar_ultrasonico 005E                         Lcd_Cmd@a 0003  
        _Configuracion_Registros 2810                        _vfpfcnvrt 108A  
                     _ADCON1bits 000FC1             __end_of_USART_TxChar 27FC  
              ___wmul@multiplier 0001                        lcd_putc@a 0005  
                      lcd_putc@i 0009                     ??_lcd_gotoxy 0005  
                   _isspace$1072 0007                         _Lcd_Port 2484  
   __end_of_delaymsled_red_green 253A                         __Hrparam 0000  
                     vfprintf@ap 0058                         __Lrparam 0000  
                     vfprintf@fp 0054               __end_of_lcd_gotoxy 2422  
                     ?_vfpfcnvrt 0040                  ___aodiv@divisor 0009  
                ___aodiv@counter 0011                 _USART_SendString 2708  
                     sprintf@fmt 00AA                         ___xxtofl 16C8  
                ___lwdiv@divisor 0003                  ___lwdiv@counter 0007  
                       __ptext10 25DE                         __ptext11 1DC4  
                       __ptext20 21E6                         __ptext12 281A  
                       __ptext21 269A                         __ptext13 2622  
                       __ptext30 22D8                         __ptext22 23BC  
                       __ptext14 1A04                         __ptext31 27B8  
                       __ptext23 2798                         __ptext15 187C  
                       __ptext32 20C0                         __ptext24 2484  
                       __ptext16 1B68                         __ptext33 16C8  
                       __ptext25 2010                         __ptext17 258C  
                       __ptext34 1CBE                         __ptext26 24E0  
                       __ptext18 2662                         __ptext35 0CF0  
                       __ptext27 2708                         __ptext19 2772  
                       __ptext36 0830                         __ptext28 27E6  
                       __ptext37 27FC                         __ptext29 2154  
                       __ptext38 2810                         _lcd_init 2264  
                       _lcd_putc 21E6        ??_Configuracion_Registros 0001  
                       isa$xinst 000000                       _LCD_Buffer 0088  
              _delaymsled_yellow 27B8                         _vfprintf 2422  
                       main@argc 00BE                         main@argv 00C0  
             ?_delaymsled_yellow 0001                 ___aomod@dividend 0001  
            ??_delaymsled_yellow 0001                         isdigit@c 0001  
                USART_TxChar@out 0001                        sprintf@ap 00AE  
                       isspace@c 0001        __end_of_delaymsled_yellow 27D0  
                ___aomod@divisor 0009                      ??_vfpfcnvrt 0046  
                ___aomod@counter 0011                _Obtener_Distancia 2154  
           _delaymsled_red_green 24E0                         sprintf@f 00B0  
                       sprintf@s 00A8               ?_Obtener_Distancia 0008  
                  ___fladd@signs 0034      llamar_ultrasonico@Distancia 005C  
            ??_Obtener_Distancia 000A                     ___aodiv@sign 0012  
       Obtener_Distancia@Timer_1 000C                     ___fladd@aexp 0035  
                   ___fladd@bexp 0036                     _USART_TxChar 27E6  
                 _lcd_write_char 269A                     ___aomod@sign 0012  
                     _USART_Init 20C0  
